ARM GAS  C:\Users\Anoolv\AppData\Local\Temp\ccdSiwxa.s 			page 1


   1              		.cpu cortex-m3
   2              		.eabi_attribute 20, 1
   3              		.eabi_attribute 21, 1
   4              		.eabi_attribute 23, 3
   5              		.eabi_attribute 24, 1
   6              		.eabi_attribute 25, 1
   7              		.eabi_attribute 26, 1
   8              		.eabi_attribute 30, 1
   9              		.eabi_attribute 34, 1
  10              		.eabi_attribute 18, 4
  11              		.file	"stm32f10x_gpio.c"
  12              		.text
  13              	.Ltext0:
  14              		.cfi_sections	.debug_frame
  15              		.section	.text.GPIO_DeInit,"ax",%progbits
  16              		.align	1
  17              		.global	GPIO_DeInit
  18              		.arch armv7-m
  19              		.syntax unified
  20              		.thumb
  21              		.thumb_func
  22              		.fpu softvfp
  24              	GPIO_DeInit:
  25              	.LVL0:
  26              	.LFB29:
  27              		.file 1 "STM32F10x_StdPeriph_Driver/src/stm32f10x_gpio.c"
   1:STM32F10x_StdPeriph_Driver/src/stm32f10x_gpio.c **** /**
   2:STM32F10x_StdPeriph_Driver/src/stm32f10x_gpio.c ****   ******************************************************************************
   3:STM32F10x_StdPeriph_Driver/src/stm32f10x_gpio.c ****   * @file    stm32f10x_gpio.c
   4:STM32F10x_StdPeriph_Driver/src/stm32f10x_gpio.c ****   * @author  MCD Application Team
   5:STM32F10x_StdPeriph_Driver/src/stm32f10x_gpio.c ****   * @version V3.5.0
   6:STM32F10x_StdPeriph_Driver/src/stm32f10x_gpio.c ****   * @date    11-March-2011
   7:STM32F10x_StdPeriph_Driver/src/stm32f10x_gpio.c ****   * @brief   This file provides all the GPIO firmware functions.
   8:STM32F10x_StdPeriph_Driver/src/stm32f10x_gpio.c ****   ******************************************************************************
   9:STM32F10x_StdPeriph_Driver/src/stm32f10x_gpio.c ****   * @attention
  10:STM32F10x_StdPeriph_Driver/src/stm32f10x_gpio.c ****   *
  11:STM32F10x_StdPeriph_Driver/src/stm32f10x_gpio.c ****   * THE PRESENT FIRMWARE WHICH IS FOR GUIDANCE ONLY AIMS AT PROVIDING CUSTOMERS
  12:STM32F10x_StdPeriph_Driver/src/stm32f10x_gpio.c ****   * WITH CODING INFORMATION REGARDING THEIR PRODUCTS IN ORDER FOR THEM TO SAVE
  13:STM32F10x_StdPeriph_Driver/src/stm32f10x_gpio.c ****   * TIME. AS A RESULT, STMICROELECTRONICS SHALL NOT BE HELD LIABLE FOR ANY
  14:STM32F10x_StdPeriph_Driver/src/stm32f10x_gpio.c ****   * DIRECT, INDIRECT OR CONSEQUENTIAL DAMAGES WITH RESPECT TO ANY CLAIMS ARISING
  15:STM32F10x_StdPeriph_Driver/src/stm32f10x_gpio.c ****   * FROM THE CONTENT OF SUCH FIRMWARE AND/OR THE USE MADE BY CUSTOMERS OF THE
  16:STM32F10x_StdPeriph_Driver/src/stm32f10x_gpio.c ****   * CODING INFORMATION CONTAINED HEREIN IN CONNECTION WITH THEIR PRODUCTS.
  17:STM32F10x_StdPeriph_Driver/src/stm32f10x_gpio.c ****   *
  18:STM32F10x_StdPeriph_Driver/src/stm32f10x_gpio.c ****   * <h2><center>&copy; COPYRIGHT 2011 STMicroelectronics</center></h2>
  19:STM32F10x_StdPeriph_Driver/src/stm32f10x_gpio.c ****   ******************************************************************************
  20:STM32F10x_StdPeriph_Driver/src/stm32f10x_gpio.c ****   */
  21:STM32F10x_StdPeriph_Driver/src/stm32f10x_gpio.c **** 
  22:STM32F10x_StdPeriph_Driver/src/stm32f10x_gpio.c **** /* Includes ------------------------------------------------------------------*/
  23:STM32F10x_StdPeriph_Driver/src/stm32f10x_gpio.c **** #include "stm32f10x_gpio.h"
  24:STM32F10x_StdPeriph_Driver/src/stm32f10x_gpio.c **** #include "stm32f10x_rcc.h"
  25:STM32F10x_StdPeriph_Driver/src/stm32f10x_gpio.c **** 
  26:STM32F10x_StdPeriph_Driver/src/stm32f10x_gpio.c **** /** @addtogroup STM32F10x_StdPeriph_Driver
  27:STM32F10x_StdPeriph_Driver/src/stm32f10x_gpio.c ****   * @{
  28:STM32F10x_StdPeriph_Driver/src/stm32f10x_gpio.c ****   */
  29:STM32F10x_StdPeriph_Driver/src/stm32f10x_gpio.c **** 
  30:STM32F10x_StdPeriph_Driver/src/stm32f10x_gpio.c **** /** @defgroup GPIO 
  31:STM32F10x_StdPeriph_Driver/src/stm32f10x_gpio.c ****   * @brief GPIO driver modules
ARM GAS  C:\Users\Anoolv\AppData\Local\Temp\ccdSiwxa.s 			page 2


  32:STM32F10x_StdPeriph_Driver/src/stm32f10x_gpio.c ****   * @{
  33:STM32F10x_StdPeriph_Driver/src/stm32f10x_gpio.c ****   */ 
  34:STM32F10x_StdPeriph_Driver/src/stm32f10x_gpio.c **** 
  35:STM32F10x_StdPeriph_Driver/src/stm32f10x_gpio.c **** /** @defgroup GPIO_Private_TypesDefinitions
  36:STM32F10x_StdPeriph_Driver/src/stm32f10x_gpio.c ****   * @{
  37:STM32F10x_StdPeriph_Driver/src/stm32f10x_gpio.c ****   */
  38:STM32F10x_StdPeriph_Driver/src/stm32f10x_gpio.c **** 
  39:STM32F10x_StdPeriph_Driver/src/stm32f10x_gpio.c **** /**
  40:STM32F10x_StdPeriph_Driver/src/stm32f10x_gpio.c ****   * @}
  41:STM32F10x_StdPeriph_Driver/src/stm32f10x_gpio.c ****   */
  42:STM32F10x_StdPeriph_Driver/src/stm32f10x_gpio.c **** 
  43:STM32F10x_StdPeriph_Driver/src/stm32f10x_gpio.c **** /** @defgroup GPIO_Private_Defines
  44:STM32F10x_StdPeriph_Driver/src/stm32f10x_gpio.c ****   * @{
  45:STM32F10x_StdPeriph_Driver/src/stm32f10x_gpio.c ****   */
  46:STM32F10x_StdPeriph_Driver/src/stm32f10x_gpio.c **** 
  47:STM32F10x_StdPeriph_Driver/src/stm32f10x_gpio.c **** /* ------------ RCC registers bit address in the alias region ----------------*/
  48:STM32F10x_StdPeriph_Driver/src/stm32f10x_gpio.c **** #define AFIO_OFFSET                 (AFIO_BASE - PERIPH_BASE)
  49:STM32F10x_StdPeriph_Driver/src/stm32f10x_gpio.c **** 
  50:STM32F10x_StdPeriph_Driver/src/stm32f10x_gpio.c **** /* --- EVENTCR Register -----*/
  51:STM32F10x_StdPeriph_Driver/src/stm32f10x_gpio.c **** 
  52:STM32F10x_StdPeriph_Driver/src/stm32f10x_gpio.c **** /* Alias word address of EVOE bit */
  53:STM32F10x_StdPeriph_Driver/src/stm32f10x_gpio.c **** #define EVCR_OFFSET                 (AFIO_OFFSET + 0x00)
  54:STM32F10x_StdPeriph_Driver/src/stm32f10x_gpio.c **** #define EVOE_BitNumber              ((uint8_t)0x07)
  55:STM32F10x_StdPeriph_Driver/src/stm32f10x_gpio.c **** #define EVCR_EVOE_BB                (PERIPH_BB_BASE + (EVCR_OFFSET * 32) + (EVOE_BitNumber * 4))
  56:STM32F10x_StdPeriph_Driver/src/stm32f10x_gpio.c **** 
  57:STM32F10x_StdPeriph_Driver/src/stm32f10x_gpio.c **** 
  58:STM32F10x_StdPeriph_Driver/src/stm32f10x_gpio.c **** /* ---  MAPR Register ---*/ 
  59:STM32F10x_StdPeriph_Driver/src/stm32f10x_gpio.c **** /* Alias word address of MII_RMII_SEL bit */ 
  60:STM32F10x_StdPeriph_Driver/src/stm32f10x_gpio.c **** #define MAPR_OFFSET                 (AFIO_OFFSET + 0x04) 
  61:STM32F10x_StdPeriph_Driver/src/stm32f10x_gpio.c **** #define MII_RMII_SEL_BitNumber      ((u8)0x17) 
  62:STM32F10x_StdPeriph_Driver/src/stm32f10x_gpio.c **** #define MAPR_MII_RMII_SEL_BB        (PERIPH_BB_BASE + (MAPR_OFFSET * 32) + (MII_RMII_SEL_BitNumber 
  63:STM32F10x_StdPeriph_Driver/src/stm32f10x_gpio.c **** 
  64:STM32F10x_StdPeriph_Driver/src/stm32f10x_gpio.c **** 
  65:STM32F10x_StdPeriph_Driver/src/stm32f10x_gpio.c **** #define EVCR_PORTPINCONFIG_MASK     ((uint16_t)0xFF80)
  66:STM32F10x_StdPeriph_Driver/src/stm32f10x_gpio.c **** #define LSB_MASK                    ((uint16_t)0xFFFF)
  67:STM32F10x_StdPeriph_Driver/src/stm32f10x_gpio.c **** #define DBGAFR_POSITION_MASK        ((uint32_t)0x000F0000)
  68:STM32F10x_StdPeriph_Driver/src/stm32f10x_gpio.c **** #define DBGAFR_SWJCFG_MASK          ((uint32_t)0xF0FFFFFF)
  69:STM32F10x_StdPeriph_Driver/src/stm32f10x_gpio.c **** #define DBGAFR_LOCATION_MASK        ((uint32_t)0x00200000)
  70:STM32F10x_StdPeriph_Driver/src/stm32f10x_gpio.c **** #define DBGAFR_NUMBITS_MASK         ((uint32_t)0x00100000)
  71:STM32F10x_StdPeriph_Driver/src/stm32f10x_gpio.c **** /**
  72:STM32F10x_StdPeriph_Driver/src/stm32f10x_gpio.c ****   * @}
  73:STM32F10x_StdPeriph_Driver/src/stm32f10x_gpio.c ****   */
  74:STM32F10x_StdPeriph_Driver/src/stm32f10x_gpio.c **** 
  75:STM32F10x_StdPeriph_Driver/src/stm32f10x_gpio.c **** /** @defgroup GPIO_Private_Macros
  76:STM32F10x_StdPeriph_Driver/src/stm32f10x_gpio.c ****   * @{
  77:STM32F10x_StdPeriph_Driver/src/stm32f10x_gpio.c ****   */
  78:STM32F10x_StdPeriph_Driver/src/stm32f10x_gpio.c **** 
  79:STM32F10x_StdPeriph_Driver/src/stm32f10x_gpio.c **** /**
  80:STM32F10x_StdPeriph_Driver/src/stm32f10x_gpio.c ****   * @}
  81:STM32F10x_StdPeriph_Driver/src/stm32f10x_gpio.c ****   */
  82:STM32F10x_StdPeriph_Driver/src/stm32f10x_gpio.c **** 
  83:STM32F10x_StdPeriph_Driver/src/stm32f10x_gpio.c **** /** @defgroup GPIO_Private_Variables
  84:STM32F10x_StdPeriph_Driver/src/stm32f10x_gpio.c ****   * @{
  85:STM32F10x_StdPeriph_Driver/src/stm32f10x_gpio.c ****   */
  86:STM32F10x_StdPeriph_Driver/src/stm32f10x_gpio.c **** 
  87:STM32F10x_StdPeriph_Driver/src/stm32f10x_gpio.c **** /**
  88:STM32F10x_StdPeriph_Driver/src/stm32f10x_gpio.c ****   * @}
ARM GAS  C:\Users\Anoolv\AppData\Local\Temp\ccdSiwxa.s 			page 3


  89:STM32F10x_StdPeriph_Driver/src/stm32f10x_gpio.c ****   */
  90:STM32F10x_StdPeriph_Driver/src/stm32f10x_gpio.c **** 
  91:STM32F10x_StdPeriph_Driver/src/stm32f10x_gpio.c **** /** @defgroup GPIO_Private_FunctionPrototypes
  92:STM32F10x_StdPeriph_Driver/src/stm32f10x_gpio.c ****   * @{
  93:STM32F10x_StdPeriph_Driver/src/stm32f10x_gpio.c ****   */
  94:STM32F10x_StdPeriph_Driver/src/stm32f10x_gpio.c **** 
  95:STM32F10x_StdPeriph_Driver/src/stm32f10x_gpio.c **** /**
  96:STM32F10x_StdPeriph_Driver/src/stm32f10x_gpio.c ****   * @}
  97:STM32F10x_StdPeriph_Driver/src/stm32f10x_gpio.c ****   */
  98:STM32F10x_StdPeriph_Driver/src/stm32f10x_gpio.c **** 
  99:STM32F10x_StdPeriph_Driver/src/stm32f10x_gpio.c **** /** @defgroup GPIO_Private_Functions
 100:STM32F10x_StdPeriph_Driver/src/stm32f10x_gpio.c ****   * @{
 101:STM32F10x_StdPeriph_Driver/src/stm32f10x_gpio.c ****   */
 102:STM32F10x_StdPeriph_Driver/src/stm32f10x_gpio.c **** 
 103:STM32F10x_StdPeriph_Driver/src/stm32f10x_gpio.c **** /**
 104:STM32F10x_StdPeriph_Driver/src/stm32f10x_gpio.c ****   * @brief  Deinitializes the GPIOx peripheral registers to their default reset values.
 105:STM32F10x_StdPeriph_Driver/src/stm32f10x_gpio.c ****   * @param  GPIOx: where x can be (A..G) to select the GPIO peripheral.
 106:STM32F10x_StdPeriph_Driver/src/stm32f10x_gpio.c ****   * @retval None
 107:STM32F10x_StdPeriph_Driver/src/stm32f10x_gpio.c ****   */
 108:STM32F10x_StdPeriph_Driver/src/stm32f10x_gpio.c **** void GPIO_DeInit(GPIO_TypeDef* GPIOx)
 109:STM32F10x_StdPeriph_Driver/src/stm32f10x_gpio.c **** {
  28              		.loc 1 109 1 view -0
  29              		.cfi_startproc
  30              		@ args = 0, pretend = 0, frame = 0
  31              		@ frame_needed = 0, uses_anonymous_args = 0
  32              		.loc 1 109 1 is_stmt 0 view .LVU1
  33 0000 10B5     		push	{r4, lr}
  34              	.LCFI0:
  35              		.cfi_def_cfa_offset 8
  36              		.cfi_offset 4, -8
  37              		.cfi_offset 14, -4
  38 0002 0446     		mov	r4, r0
 110:STM32F10x_StdPeriph_Driver/src/stm32f10x_gpio.c ****   /* Check the parameters */
 111:STM32F10x_StdPeriph_Driver/src/stm32f10x_gpio.c ****   assert_param(IS_GPIO_ALL_PERIPH(GPIOx));
  39              		.loc 1 111 3 is_stmt 1 view .LVU2
  40 0004 414B     		ldr	r3, .L26
  41 0006 9842     		cmp	r0, r3
  42 0008 1BD0     		beq	.L10
  43              		.loc 1 111 16 is_stmt 0 discriminator 2 view .LVU3
  44 000a 03F58063 		add	r3, r3, #1024
  45 000e 9842     		cmp	r0, r3
  46 0010 30D0     		beq	.L11
  47              		.loc 1 111 16 discriminator 4 view .LVU4
  48 0012 03F58063 		add	r3, r3, #1024
  49 0016 9842     		cmp	r0, r3
  50 0018 2ED0     		beq	.L12
  51              		.loc 1 111 16 discriminator 6 view .LVU5
  52 001a 03F58063 		add	r3, r3, #1024
  53 001e 9842     		cmp	r0, r3
  54 0020 2CD0     		beq	.L13
  55              		.loc 1 111 16 discriminator 8 view .LVU6
  56 0022 03F58063 		add	r3, r3, #1024
  57 0026 9842     		cmp	r0, r3
  58 0028 2AD0     		beq	.L14
  59              		.loc 1 111 16 discriminator 10 view .LVU7
  60 002a 03F58063 		add	r3, r3, #1024
  61 002e 9842     		cmp	r0, r3
ARM GAS  C:\Users\Anoolv\AppData\Local\Temp\ccdSiwxa.s 			page 4


  62 0030 28D0     		beq	.L15
  63              		.loc 1 111 3 discriminator 12 view .LVU8
  64 0032 03F58063 		add	r3, r3, #1024
  65 0036 9842     		cmp	r0, r3
  66 0038 01D0     		beq	.L18
  67              		.loc 1 111 3 view .LVU9
  68 003a 0020     		movs	r0, #0
  69              	.LVL1:
  70              		.loc 1 111 3 view .LVU10
  71 003c 02E0     		b	.L2
  72              	.LVL2:
  73              	.L18:
  74              		.loc 1 111 3 view .LVU11
  75 003e 0120     		movs	r0, #1
  76              	.LVL3:
  77              		.loc 1 111 3 view .LVU12
  78 0040 00E0     		b	.L2
  79              	.LVL4:
  80              	.L10:
  81              		.loc 1 111 3 view .LVU13
  82 0042 0120     		movs	r0, #1
  83              	.LVL5:
  84              	.L2:
  85              		.loc 1 111 3 discriminator 16 view .LVU14
  86 0044 FFF7FEFF 		bl	assert_param
  87              	.LVL6:
 112:STM32F10x_StdPeriph_Driver/src/stm32f10x_gpio.c ****   
 113:STM32F10x_StdPeriph_Driver/src/stm32f10x_gpio.c ****   if (GPIOx == GPIOA)
  88              		.loc 1 113 3 is_stmt 1 discriminator 16 view .LVU15
  89              		.loc 1 113 6 is_stmt 0 discriminator 16 view .LVU16
  90 0048 304B     		ldr	r3, .L26
  91 004a 9C42     		cmp	r4, r3
  92 004c 1CD0     		beq	.L19
 114:STM32F10x_StdPeriph_Driver/src/stm32f10x_gpio.c ****   {
 115:STM32F10x_StdPeriph_Driver/src/stm32f10x_gpio.c ****     RCC_APB2PeriphResetCmd(RCC_APB2Periph_GPIOA, ENABLE);
 116:STM32F10x_StdPeriph_Driver/src/stm32f10x_gpio.c ****     RCC_APB2PeriphResetCmd(RCC_APB2Periph_GPIOA, DISABLE);
 117:STM32F10x_StdPeriph_Driver/src/stm32f10x_gpio.c ****   }
 118:STM32F10x_StdPeriph_Driver/src/stm32f10x_gpio.c ****   else if (GPIOx == GPIOB)
  93              		.loc 1 118 8 is_stmt 1 view .LVU17
  94              		.loc 1 118 11 is_stmt 0 view .LVU18
  95 004e 304B     		ldr	r3, .L26+4
  96 0050 9C42     		cmp	r4, r3
  97 0052 22D0     		beq	.L20
 119:STM32F10x_StdPeriph_Driver/src/stm32f10x_gpio.c ****   {
 120:STM32F10x_StdPeriph_Driver/src/stm32f10x_gpio.c ****     RCC_APB2PeriphResetCmd(RCC_APB2Periph_GPIOB, ENABLE);
 121:STM32F10x_StdPeriph_Driver/src/stm32f10x_gpio.c ****     RCC_APB2PeriphResetCmd(RCC_APB2Periph_GPIOB, DISABLE);
 122:STM32F10x_StdPeriph_Driver/src/stm32f10x_gpio.c ****   }
 123:STM32F10x_StdPeriph_Driver/src/stm32f10x_gpio.c ****   else if (GPIOx == GPIOC)
  98              		.loc 1 123 8 is_stmt 1 view .LVU19
  99              		.loc 1 123 11 is_stmt 0 view .LVU20
 100 0054 2F4B     		ldr	r3, .L26+8
 101 0056 9C42     		cmp	r4, r3
 102 0058 28D0     		beq	.L21
 124:STM32F10x_StdPeriph_Driver/src/stm32f10x_gpio.c ****   {
 125:STM32F10x_StdPeriph_Driver/src/stm32f10x_gpio.c ****     RCC_APB2PeriphResetCmd(RCC_APB2Periph_GPIOC, ENABLE);
 126:STM32F10x_StdPeriph_Driver/src/stm32f10x_gpio.c ****     RCC_APB2PeriphResetCmd(RCC_APB2Periph_GPIOC, DISABLE);
 127:STM32F10x_StdPeriph_Driver/src/stm32f10x_gpio.c ****   }
ARM GAS  C:\Users\Anoolv\AppData\Local\Temp\ccdSiwxa.s 			page 5


 128:STM32F10x_StdPeriph_Driver/src/stm32f10x_gpio.c ****   else if (GPIOx == GPIOD)
 103              		.loc 1 128 8 is_stmt 1 view .LVU21
 104              		.loc 1 128 11 is_stmt 0 view .LVU22
 105 005a 2F4B     		ldr	r3, .L26+12
 106 005c 9C42     		cmp	r4, r3
 107 005e 2ED0     		beq	.L22
 129:STM32F10x_StdPeriph_Driver/src/stm32f10x_gpio.c ****   {
 130:STM32F10x_StdPeriph_Driver/src/stm32f10x_gpio.c ****     RCC_APB2PeriphResetCmd(RCC_APB2Periph_GPIOD, ENABLE);
 131:STM32F10x_StdPeriph_Driver/src/stm32f10x_gpio.c ****     RCC_APB2PeriphResetCmd(RCC_APB2Periph_GPIOD, DISABLE);
 132:STM32F10x_StdPeriph_Driver/src/stm32f10x_gpio.c ****   }    
 133:STM32F10x_StdPeriph_Driver/src/stm32f10x_gpio.c ****   else if (GPIOx == GPIOE)
 108              		.loc 1 133 8 is_stmt 1 view .LVU23
 109              		.loc 1 133 11 is_stmt 0 view .LVU24
 110 0060 2E4B     		ldr	r3, .L26+16
 111 0062 9C42     		cmp	r4, r3
 112 0064 34D0     		beq	.L23
 134:STM32F10x_StdPeriph_Driver/src/stm32f10x_gpio.c ****   {
 135:STM32F10x_StdPeriph_Driver/src/stm32f10x_gpio.c ****     RCC_APB2PeriphResetCmd(RCC_APB2Periph_GPIOE, ENABLE);
 136:STM32F10x_StdPeriph_Driver/src/stm32f10x_gpio.c ****     RCC_APB2PeriphResetCmd(RCC_APB2Periph_GPIOE, DISABLE);
 137:STM32F10x_StdPeriph_Driver/src/stm32f10x_gpio.c ****   } 
 138:STM32F10x_StdPeriph_Driver/src/stm32f10x_gpio.c ****   else if (GPIOx == GPIOF)
 113              		.loc 1 138 8 is_stmt 1 view .LVU25
 114              		.loc 1 138 11 is_stmt 0 view .LVU26
 115 0066 2E4B     		ldr	r3, .L26+20
 116 0068 9C42     		cmp	r4, r3
 117 006a 3AD0     		beq	.L24
 139:STM32F10x_StdPeriph_Driver/src/stm32f10x_gpio.c ****   {
 140:STM32F10x_StdPeriph_Driver/src/stm32f10x_gpio.c ****     RCC_APB2PeriphResetCmd(RCC_APB2Periph_GPIOF, ENABLE);
 141:STM32F10x_StdPeriph_Driver/src/stm32f10x_gpio.c ****     RCC_APB2PeriphResetCmd(RCC_APB2Periph_GPIOF, DISABLE);
 142:STM32F10x_StdPeriph_Driver/src/stm32f10x_gpio.c ****   }
 143:STM32F10x_StdPeriph_Driver/src/stm32f10x_gpio.c ****   else
 144:STM32F10x_StdPeriph_Driver/src/stm32f10x_gpio.c ****   {
 145:STM32F10x_StdPeriph_Driver/src/stm32f10x_gpio.c ****     if (GPIOx == GPIOG)
 118              		.loc 1 145 5 is_stmt 1 view .LVU27
 119              		.loc 1 145 8 is_stmt 0 view .LVU28
 120 006c 2D4B     		ldr	r3, .L26+24
 121 006e 9C42     		cmp	r4, r3
 122 0070 40D0     		beq	.L25
 123              	.L1:
 146:STM32F10x_StdPeriph_Driver/src/stm32f10x_gpio.c ****     {
 147:STM32F10x_StdPeriph_Driver/src/stm32f10x_gpio.c ****       RCC_APB2PeriphResetCmd(RCC_APB2Periph_GPIOG, ENABLE);
 148:STM32F10x_StdPeriph_Driver/src/stm32f10x_gpio.c ****       RCC_APB2PeriphResetCmd(RCC_APB2Periph_GPIOG, DISABLE);
 149:STM32F10x_StdPeriph_Driver/src/stm32f10x_gpio.c ****     }
 150:STM32F10x_StdPeriph_Driver/src/stm32f10x_gpio.c ****   }
 151:STM32F10x_StdPeriph_Driver/src/stm32f10x_gpio.c **** }
 124              		.loc 1 151 1 view .LVU29
 125 0072 10BD     		pop	{r4, pc}
 126              	.LVL7:
 127              	.L11:
 111:STM32F10x_StdPeriph_Driver/src/stm32f10x_gpio.c ****   
 128              		.loc 1 111 3 view .LVU30
 129 0074 0120     		movs	r0, #1
 130              	.LVL8:
 111:STM32F10x_StdPeriph_Driver/src/stm32f10x_gpio.c ****   
 131              		.loc 1 111 3 view .LVU31
 132 0076 E5E7     		b	.L2
 133              	.LVL9:
ARM GAS  C:\Users\Anoolv\AppData\Local\Temp\ccdSiwxa.s 			page 6


 134              	.L12:
 111:STM32F10x_StdPeriph_Driver/src/stm32f10x_gpio.c ****   
 135              		.loc 1 111 3 view .LVU32
 136 0078 0120     		movs	r0, #1
 137              	.LVL10:
 111:STM32F10x_StdPeriph_Driver/src/stm32f10x_gpio.c ****   
 138              		.loc 1 111 3 view .LVU33
 139 007a E3E7     		b	.L2
 140              	.LVL11:
 141              	.L13:
 111:STM32F10x_StdPeriph_Driver/src/stm32f10x_gpio.c ****   
 142              		.loc 1 111 3 view .LVU34
 143 007c 0120     		movs	r0, #1
 144              	.LVL12:
 111:STM32F10x_StdPeriph_Driver/src/stm32f10x_gpio.c ****   
 145              		.loc 1 111 3 view .LVU35
 146 007e E1E7     		b	.L2
 147              	.LVL13:
 148              	.L14:
 111:STM32F10x_StdPeriph_Driver/src/stm32f10x_gpio.c ****   
 149              		.loc 1 111 3 view .LVU36
 150 0080 0120     		movs	r0, #1
 151              	.LVL14:
 111:STM32F10x_StdPeriph_Driver/src/stm32f10x_gpio.c ****   
 152              		.loc 1 111 3 view .LVU37
 153 0082 DFE7     		b	.L2
 154              	.LVL15:
 155              	.L15:
 111:STM32F10x_StdPeriph_Driver/src/stm32f10x_gpio.c ****   
 156              		.loc 1 111 3 view .LVU38
 157 0084 0120     		movs	r0, #1
 158              	.LVL16:
 111:STM32F10x_StdPeriph_Driver/src/stm32f10x_gpio.c ****   
 159              		.loc 1 111 3 view .LVU39
 160 0086 DDE7     		b	.L2
 161              	.L19:
 115:STM32F10x_StdPeriph_Driver/src/stm32f10x_gpio.c ****     RCC_APB2PeriphResetCmd(RCC_APB2Periph_GPIOA, DISABLE);
 162              		.loc 1 115 5 is_stmt 1 view .LVU40
 163 0088 0121     		movs	r1, #1
 164 008a 0420     		movs	r0, #4
 165 008c FFF7FEFF 		bl	RCC_APB2PeriphResetCmd
 166              	.LVL17:
 116:STM32F10x_StdPeriph_Driver/src/stm32f10x_gpio.c ****   }
 167              		.loc 1 116 5 view .LVU41
 168 0090 0021     		movs	r1, #0
 169 0092 0420     		movs	r0, #4
 170 0094 FFF7FEFF 		bl	RCC_APB2PeriphResetCmd
 171              	.LVL18:
 172 0098 EBE7     		b	.L1
 173              	.L20:
 120:STM32F10x_StdPeriph_Driver/src/stm32f10x_gpio.c ****     RCC_APB2PeriphResetCmd(RCC_APB2Periph_GPIOB, DISABLE);
 174              		.loc 1 120 5 view .LVU42
 175 009a 0121     		movs	r1, #1
 176 009c 0820     		movs	r0, #8
 177 009e FFF7FEFF 		bl	RCC_APB2PeriphResetCmd
 178              	.LVL19:
 121:STM32F10x_StdPeriph_Driver/src/stm32f10x_gpio.c ****   }
ARM GAS  C:\Users\Anoolv\AppData\Local\Temp\ccdSiwxa.s 			page 7


 179              		.loc 1 121 5 view .LVU43
 180 00a2 0021     		movs	r1, #0
 181 00a4 0820     		movs	r0, #8
 182 00a6 FFF7FEFF 		bl	RCC_APB2PeriphResetCmd
 183              	.LVL20:
 184 00aa E2E7     		b	.L1
 185              	.L21:
 125:STM32F10x_StdPeriph_Driver/src/stm32f10x_gpio.c ****     RCC_APB2PeriphResetCmd(RCC_APB2Periph_GPIOC, DISABLE);
 186              		.loc 1 125 5 view .LVU44
 187 00ac 0121     		movs	r1, #1
 188 00ae 1020     		movs	r0, #16
 189 00b0 FFF7FEFF 		bl	RCC_APB2PeriphResetCmd
 190              	.LVL21:
 126:STM32F10x_StdPeriph_Driver/src/stm32f10x_gpio.c ****   }
 191              		.loc 1 126 5 view .LVU45
 192 00b4 0021     		movs	r1, #0
 193 00b6 1020     		movs	r0, #16
 194 00b8 FFF7FEFF 		bl	RCC_APB2PeriphResetCmd
 195              	.LVL22:
 196 00bc D9E7     		b	.L1
 197              	.L22:
 130:STM32F10x_StdPeriph_Driver/src/stm32f10x_gpio.c ****     RCC_APB2PeriphResetCmd(RCC_APB2Periph_GPIOD, DISABLE);
 198              		.loc 1 130 5 view .LVU46
 199 00be 0121     		movs	r1, #1
 200 00c0 2020     		movs	r0, #32
 201 00c2 FFF7FEFF 		bl	RCC_APB2PeriphResetCmd
 202              	.LVL23:
 131:STM32F10x_StdPeriph_Driver/src/stm32f10x_gpio.c ****   }    
 203              		.loc 1 131 5 view .LVU47
 204 00c6 0021     		movs	r1, #0
 205 00c8 2020     		movs	r0, #32
 206 00ca FFF7FEFF 		bl	RCC_APB2PeriphResetCmd
 207              	.LVL24:
 208 00ce D0E7     		b	.L1
 209              	.L23:
 135:STM32F10x_StdPeriph_Driver/src/stm32f10x_gpio.c ****     RCC_APB2PeriphResetCmd(RCC_APB2Periph_GPIOE, DISABLE);
 210              		.loc 1 135 5 view .LVU48
 211 00d0 0121     		movs	r1, #1
 212 00d2 4020     		movs	r0, #64
 213 00d4 FFF7FEFF 		bl	RCC_APB2PeriphResetCmd
 214              	.LVL25:
 136:STM32F10x_StdPeriph_Driver/src/stm32f10x_gpio.c ****   } 
 215              		.loc 1 136 5 view .LVU49
 216 00d8 0021     		movs	r1, #0
 217 00da 4020     		movs	r0, #64
 218 00dc FFF7FEFF 		bl	RCC_APB2PeriphResetCmd
 219              	.LVL26:
 220 00e0 C7E7     		b	.L1
 221              	.L24:
 140:STM32F10x_StdPeriph_Driver/src/stm32f10x_gpio.c ****     RCC_APB2PeriphResetCmd(RCC_APB2Periph_GPIOF, DISABLE);
 222              		.loc 1 140 5 view .LVU50
 223 00e2 0121     		movs	r1, #1
 224 00e4 8020     		movs	r0, #128
 225 00e6 FFF7FEFF 		bl	RCC_APB2PeriphResetCmd
 226              	.LVL27:
 141:STM32F10x_StdPeriph_Driver/src/stm32f10x_gpio.c ****   }
 227              		.loc 1 141 5 view .LVU51
ARM GAS  C:\Users\Anoolv\AppData\Local\Temp\ccdSiwxa.s 			page 8


 228 00ea 0021     		movs	r1, #0
 229 00ec 8020     		movs	r0, #128
 230 00ee FFF7FEFF 		bl	RCC_APB2PeriphResetCmd
 231              	.LVL28:
 232 00f2 BEE7     		b	.L1
 233              	.L25:
 147:STM32F10x_StdPeriph_Driver/src/stm32f10x_gpio.c ****       RCC_APB2PeriphResetCmd(RCC_APB2Periph_GPIOG, DISABLE);
 234              		.loc 1 147 7 view .LVU52
 235 00f4 0121     		movs	r1, #1
 236 00f6 4FF48070 		mov	r0, #256
 237 00fa FFF7FEFF 		bl	RCC_APB2PeriphResetCmd
 238              	.LVL29:
 148:STM32F10x_StdPeriph_Driver/src/stm32f10x_gpio.c ****     }
 239              		.loc 1 148 7 view .LVU53
 240 00fe 0021     		movs	r1, #0
 241 0100 4FF48070 		mov	r0, #256
 242 0104 FFF7FEFF 		bl	RCC_APB2PeriphResetCmd
 243              	.LVL30:
 244              		.loc 1 151 1 is_stmt 0 view .LVU54
 245 0108 B3E7     		b	.L1
 246              	.L27:
 247 010a 00BF     		.align	2
 248              	.L26:
 249 010c 00080140 		.word	1073809408
 250 0110 000C0140 		.word	1073810432
 251 0114 00100140 		.word	1073811456
 252 0118 00140140 		.word	1073812480
 253 011c 00180140 		.word	1073813504
 254 0120 001C0140 		.word	1073814528
 255 0124 00200140 		.word	1073815552
 256              		.cfi_endproc
 257              	.LFE29:
 259              		.section	.text.GPIO_AFIODeInit,"ax",%progbits
 260              		.align	1
 261              		.global	GPIO_AFIODeInit
 262              		.syntax unified
 263              		.thumb
 264              		.thumb_func
 265              		.fpu softvfp
 267              	GPIO_AFIODeInit:
 268              	.LFB30:
 152:STM32F10x_StdPeriph_Driver/src/stm32f10x_gpio.c **** 
 153:STM32F10x_StdPeriph_Driver/src/stm32f10x_gpio.c **** /**
 154:STM32F10x_StdPeriph_Driver/src/stm32f10x_gpio.c ****   * @brief  Deinitializes the Alternate Functions (remap, event control
 155:STM32F10x_StdPeriph_Driver/src/stm32f10x_gpio.c ****   *   and EXTI configuration) registers to their default reset values.
 156:STM32F10x_StdPeriph_Driver/src/stm32f10x_gpio.c ****   * @param  None
 157:STM32F10x_StdPeriph_Driver/src/stm32f10x_gpio.c ****   * @retval None
 158:STM32F10x_StdPeriph_Driver/src/stm32f10x_gpio.c ****   */
 159:STM32F10x_StdPeriph_Driver/src/stm32f10x_gpio.c **** void GPIO_AFIODeInit(void)
 160:STM32F10x_StdPeriph_Driver/src/stm32f10x_gpio.c **** {
 269              		.loc 1 160 1 is_stmt 1 view -0
 270              		.cfi_startproc
 271              		@ args = 0, pretend = 0, frame = 0
 272              		@ frame_needed = 0, uses_anonymous_args = 0
 273 0000 08B5     		push	{r3, lr}
 274              	.LCFI1:
 275              		.cfi_def_cfa_offset 8
ARM GAS  C:\Users\Anoolv\AppData\Local\Temp\ccdSiwxa.s 			page 9


 276              		.cfi_offset 3, -8
 277              		.cfi_offset 14, -4
 161:STM32F10x_StdPeriph_Driver/src/stm32f10x_gpio.c ****   RCC_APB2PeriphResetCmd(RCC_APB2Periph_AFIO, ENABLE);
 278              		.loc 1 161 3 view .LVU56
 279 0002 0121     		movs	r1, #1
 280 0004 0846     		mov	r0, r1
 281 0006 FFF7FEFF 		bl	RCC_APB2PeriphResetCmd
 282              	.LVL31:
 162:STM32F10x_StdPeriph_Driver/src/stm32f10x_gpio.c ****   RCC_APB2PeriphResetCmd(RCC_APB2Periph_AFIO, DISABLE);
 283              		.loc 1 162 3 view .LVU57
 284 000a 0021     		movs	r1, #0
 285 000c 0120     		movs	r0, #1
 286 000e FFF7FEFF 		bl	RCC_APB2PeriphResetCmd
 287              	.LVL32:
 163:STM32F10x_StdPeriph_Driver/src/stm32f10x_gpio.c **** }
 288              		.loc 1 163 1 is_stmt 0 view .LVU58
 289 0012 08BD     		pop	{r3, pc}
 290              		.cfi_endproc
 291              	.LFE30:
 293              		.section	.text.GPIO_Init,"ax",%progbits
 294              		.align	1
 295              		.global	GPIO_Init
 296              		.syntax unified
 297              		.thumb
 298              		.thumb_func
 299              		.fpu softvfp
 301              	GPIO_Init:
 302              	.LVL33:
 303              	.LFB31:
 164:STM32F10x_StdPeriph_Driver/src/stm32f10x_gpio.c **** 
 165:STM32F10x_StdPeriph_Driver/src/stm32f10x_gpio.c **** /**
 166:STM32F10x_StdPeriph_Driver/src/stm32f10x_gpio.c ****   * @brief  Initializes the GPIOx peripheral according to the specified
 167:STM32F10x_StdPeriph_Driver/src/stm32f10x_gpio.c ****   *         parameters in the GPIO_InitStruct.
 168:STM32F10x_StdPeriph_Driver/src/stm32f10x_gpio.c ****   * @param  GPIOx: where x can be (A..G) to select the GPIO peripheral.
 169:STM32F10x_StdPeriph_Driver/src/stm32f10x_gpio.c ****   * @param  GPIO_InitStruct: pointer to a GPIO_InitTypeDef structure that
 170:STM32F10x_StdPeriph_Driver/src/stm32f10x_gpio.c ****   *         contains the configuration information for the specified GPIO peripheral.
 171:STM32F10x_StdPeriph_Driver/src/stm32f10x_gpio.c ****   * @retval None
 172:STM32F10x_StdPeriph_Driver/src/stm32f10x_gpio.c ****   */
 173:STM32F10x_StdPeriph_Driver/src/stm32f10x_gpio.c **** void GPIO_Init(GPIO_TypeDef* GPIOx, GPIO_InitTypeDef* GPIO_InitStruct)
 174:STM32F10x_StdPeriph_Driver/src/stm32f10x_gpio.c **** {
 304              		.loc 1 174 1 is_stmt 1 view -0
 305              		.cfi_startproc
 306              		@ args = 0, pretend = 0, frame = 0
 307              		@ frame_needed = 0, uses_anonymous_args = 0
 308              		.loc 1 174 1 is_stmt 0 view .LVU60
 309 0000 70B5     		push	{r4, r5, r6, lr}
 310              	.LCFI2:
 311              		.cfi_def_cfa_offset 16
 312              		.cfi_offset 4, -16
 313              		.cfi_offset 5, -12
 314              		.cfi_offset 6, -8
 315              		.cfi_offset 14, -4
 316 0002 0546     		mov	r5, r0
 317 0004 0C46     		mov	r4, r1
 175:STM32F10x_StdPeriph_Driver/src/stm32f10x_gpio.c ****   uint32_t currentmode = 0x00, currentpin = 0x00, pinpos = 0x00, pos = 0x00;
 318              		.loc 1 175 3 is_stmt 1 view .LVU61
 319              	.LVL34:
ARM GAS  C:\Users\Anoolv\AppData\Local\Temp\ccdSiwxa.s 			page 10


 176:STM32F10x_StdPeriph_Driver/src/stm32f10x_gpio.c ****   uint32_t tmpreg = 0x00, pinmask = 0x00;
 320              		.loc 1 176 3 view .LVU62
 177:STM32F10x_StdPeriph_Driver/src/stm32f10x_gpio.c ****   /* Check the parameters */
 178:STM32F10x_StdPeriph_Driver/src/stm32f10x_gpio.c ****   assert_param(IS_GPIO_ALL_PERIPH(GPIOx));
 321              		.loc 1 178 3 view .LVU63
 322 0006 584B     		ldr	r3, .L67
 323 0008 9842     		cmp	r0, r3
 324 000a 1BD0     		beq	.L44
 325              		.loc 1 178 16 is_stmt 0 discriminator 2 view .LVU64
 326 000c 03F58063 		add	r3, r3, #1024
 327 0010 9842     		cmp	r0, r3
 328 0012 2CD0     		beq	.L45
 329              		.loc 1 178 16 discriminator 4 view .LVU65
 330 0014 03F58063 		add	r3, r3, #1024
 331 0018 9842     		cmp	r0, r3
 332 001a 2AD0     		beq	.L46
 333              		.loc 1 178 16 discriminator 6 view .LVU66
 334 001c 03F58063 		add	r3, r3, #1024
 335 0020 9842     		cmp	r0, r3
 336 0022 28D0     		beq	.L47
 337              		.loc 1 178 16 discriminator 8 view .LVU67
 338 0024 03F58063 		add	r3, r3, #1024
 339 0028 9842     		cmp	r0, r3
 340 002a 26D0     		beq	.L48
 341              		.loc 1 178 16 discriminator 10 view .LVU68
 342 002c 03F58063 		add	r3, r3, #1024
 343 0030 9842     		cmp	r0, r3
 344 0032 24D0     		beq	.L49
 345              		.loc 1 178 3 discriminator 12 view .LVU69
 346 0034 03F58063 		add	r3, r3, #1024
 347 0038 9842     		cmp	r0, r3
 348 003a 01D0     		beq	.L60
 349              		.loc 1 178 3 view .LVU70
 350 003c 0020     		movs	r0, #0
 351              	.LVL35:
 352              		.loc 1 178 3 view .LVU71
 353 003e 02E0     		b	.L31
 354              	.LVL36:
 355              	.L60:
 356              		.loc 1 178 3 view .LVU72
 357 0040 0120     		movs	r0, #1
 358              	.LVL37:
 359              		.loc 1 178 3 view .LVU73
 360 0042 00E0     		b	.L31
 361              	.LVL38:
 362              	.L44:
 363              		.loc 1 178 3 view .LVU74
 364 0044 0120     		movs	r0, #1
 365              	.LVL39:
 366              	.L31:
 367              		.loc 1 178 3 discriminator 16 view .LVU75
 368 0046 FFF7FEFF 		bl	assert_param
 369              	.LVL40:
 179:STM32F10x_StdPeriph_Driver/src/stm32f10x_gpio.c ****   assert_param(IS_GPIO_MODE(GPIO_InitStruct->GPIO_Mode));
 370              		.loc 1 179 3 is_stmt 1 discriminator 16 view .LVU76
 371              		.loc 1 179 16 is_stmt 0 discriminator 16 view .LVU77
 372 004a E378     		ldrb	r3, [r4, #3]	@ zero_extendqisi2
ARM GAS  C:\Users\Anoolv\AppData\Local\Temp\ccdSiwxa.s 			page 11


 373              		.loc 1 179 3 discriminator 16 view .LVU78
 374 004c DBB1     		cbz	r3, .L51
 375              		.loc 1 179 16 discriminator 2 view .LVU79
 376 004e 042B     		cmp	r3, #4
 377 0050 2FD0     		beq	.L52
 378              		.loc 1 179 16 discriminator 4 view .LVU80
 379 0052 282B     		cmp	r3, #40
 380 0054 2FD0     		beq	.L53
 381              		.loc 1 179 16 discriminator 6 view .LVU81
 382 0056 482B     		cmp	r3, #72
 383 0058 2FD0     		beq	.L54
 384              		.loc 1 179 16 discriminator 8 view .LVU82
 385 005a 142B     		cmp	r3, #20
 386 005c 2FD0     		beq	.L55
 387              		.loc 1 179 16 discriminator 10 view .LVU83
 388 005e 102B     		cmp	r3, #16
 389 0060 2FD0     		beq	.L56
 390              		.loc 1 179 16 discriminator 12 view .LVU84
 391 0062 1C2B     		cmp	r3, #28
 392 0064 2FD0     		beq	.L57
 393              		.loc 1 179 3 discriminator 14 view .LVU85
 394 0066 182B     		cmp	r3, #24
 395 0068 0BD0     		beq	.L61
 396              		.loc 1 179 3 view .LVU86
 397 006a 0020     		movs	r0, #0
 398 006c 0CE0     		b	.L32
 399              	.LVL41:
 400              	.L45:
 178:STM32F10x_StdPeriph_Driver/src/stm32f10x_gpio.c ****   assert_param(IS_GPIO_MODE(GPIO_InitStruct->GPIO_Mode));
 401              		.loc 1 178 3 view .LVU87
 402 006e 0120     		movs	r0, #1
 403              	.LVL42:
 178:STM32F10x_StdPeriph_Driver/src/stm32f10x_gpio.c ****   assert_param(IS_GPIO_MODE(GPIO_InitStruct->GPIO_Mode));
 404              		.loc 1 178 3 view .LVU88
 405 0070 E9E7     		b	.L31
 406              	.LVL43:
 407              	.L46:
 178:STM32F10x_StdPeriph_Driver/src/stm32f10x_gpio.c ****   assert_param(IS_GPIO_MODE(GPIO_InitStruct->GPIO_Mode));
 408              		.loc 1 178 3 view .LVU89
 409 0072 0120     		movs	r0, #1
 410              	.LVL44:
 178:STM32F10x_StdPeriph_Driver/src/stm32f10x_gpio.c ****   assert_param(IS_GPIO_MODE(GPIO_InitStruct->GPIO_Mode));
 411              		.loc 1 178 3 view .LVU90
 412 0074 E7E7     		b	.L31
 413              	.LVL45:
 414              	.L47:
 178:STM32F10x_StdPeriph_Driver/src/stm32f10x_gpio.c ****   assert_param(IS_GPIO_MODE(GPIO_InitStruct->GPIO_Mode));
 415              		.loc 1 178 3 view .LVU91
 416 0076 0120     		movs	r0, #1
 417              	.LVL46:
 178:STM32F10x_StdPeriph_Driver/src/stm32f10x_gpio.c ****   assert_param(IS_GPIO_MODE(GPIO_InitStruct->GPIO_Mode));
 418              		.loc 1 178 3 view .LVU92
 419 0078 E5E7     		b	.L31
 420              	.LVL47:
 421              	.L48:
 178:STM32F10x_StdPeriph_Driver/src/stm32f10x_gpio.c ****   assert_param(IS_GPIO_MODE(GPIO_InitStruct->GPIO_Mode));
 422              		.loc 1 178 3 view .LVU93
ARM GAS  C:\Users\Anoolv\AppData\Local\Temp\ccdSiwxa.s 			page 12


 423 007a 0120     		movs	r0, #1
 424              	.LVL48:
 178:STM32F10x_StdPeriph_Driver/src/stm32f10x_gpio.c ****   assert_param(IS_GPIO_MODE(GPIO_InitStruct->GPIO_Mode));
 425              		.loc 1 178 3 view .LVU94
 426 007c E3E7     		b	.L31
 427              	.LVL49:
 428              	.L49:
 178:STM32F10x_StdPeriph_Driver/src/stm32f10x_gpio.c ****   assert_param(IS_GPIO_MODE(GPIO_InitStruct->GPIO_Mode));
 429              		.loc 1 178 3 view .LVU95
 430 007e 0120     		movs	r0, #1
 431              	.LVL50:
 178:STM32F10x_StdPeriph_Driver/src/stm32f10x_gpio.c ****   assert_param(IS_GPIO_MODE(GPIO_InitStruct->GPIO_Mode));
 432              		.loc 1 178 3 view .LVU96
 433 0080 E1E7     		b	.L31
 434              	.LVL51:
 435              	.L61:
 436              		.loc 1 179 3 view .LVU97
 437 0082 0120     		movs	r0, #1
 438 0084 00E0     		b	.L32
 439              	.L51:
 440 0086 0120     		movs	r0, #1
 441              	.L32:
 442              		.loc 1 179 3 discriminator 18 view .LVU98
 443 0088 FFF7FEFF 		bl	assert_param
 444              	.LVL52:
 180:STM32F10x_StdPeriph_Driver/src/stm32f10x_gpio.c ****   assert_param(IS_GPIO_PIN(GPIO_InitStruct->GPIO_Pin));  
 445              		.loc 1 180 3 is_stmt 1 discriminator 18 view .LVU99
 446              		.loc 1 180 16 is_stmt 0 discriminator 18 view .LVU100
 447 008c 2088     		ldrh	r0, [r4]
 448              		.loc 1 180 3 discriminator 18 view .LVU101
 449 008e 0038     		subs	r0, r0, #0
 450 0090 18BF     		it	ne
 451 0092 0120     		movne	r0, #1
 452 0094 FFF7FEFF 		bl	assert_param
 453              	.LVL53:
 181:STM32F10x_StdPeriph_Driver/src/stm32f10x_gpio.c ****   
 182:STM32F10x_StdPeriph_Driver/src/stm32f10x_gpio.c **** /*---------------------------- GPIO Mode Configuration -----------------------*/
 183:STM32F10x_StdPeriph_Driver/src/stm32f10x_gpio.c ****   currentmode = ((uint32_t)GPIO_InitStruct->GPIO_Mode) & ((uint32_t)0x0F);
 454              		.loc 1 183 3 is_stmt 1 discriminator 18 view .LVU102
 455              		.loc 1 183 43 is_stmt 0 discriminator 18 view .LVU103
 456 0098 E378     		ldrb	r3, [r4, #3]	@ zero_extendqisi2
 457 009a 03F00F06 		and	r6, r3, #15
 458              		.loc 1 183 15 discriminator 18 view .LVU104
 459 009e 3046     		mov	r0, r6
 460              	.LVL54:
 184:STM32F10x_StdPeriph_Driver/src/stm32f10x_gpio.c ****   if ((((uint32_t)GPIO_InitStruct->GPIO_Mode) & ((uint32_t)0x10)) != 0x00)
 461              		.loc 1 184 3 is_stmt 1 discriminator 18 view .LVU105
 462              		.loc 1 184 6 is_stmt 0 discriminator 18 view .LVU106
 463 00a0 13F0100F 		tst	r3, #16
 464 00a4 11D1     		bne	.L62
 465              	.L33:
 185:STM32F10x_StdPeriph_Driver/src/stm32f10x_gpio.c ****   { 
 186:STM32F10x_StdPeriph_Driver/src/stm32f10x_gpio.c ****     /* Check the parameters */
 187:STM32F10x_StdPeriph_Driver/src/stm32f10x_gpio.c ****     assert_param(IS_GPIO_SPEED(GPIO_InitStruct->GPIO_Speed));
 188:STM32F10x_StdPeriph_Driver/src/stm32f10x_gpio.c ****     /* Output mode */
 189:STM32F10x_StdPeriph_Driver/src/stm32f10x_gpio.c ****     currentmode |= (uint32_t)GPIO_InitStruct->GPIO_Speed;
 190:STM32F10x_StdPeriph_Driver/src/stm32f10x_gpio.c ****   }
ARM GAS  C:\Users\Anoolv\AppData\Local\Temp\ccdSiwxa.s 			page 13


 191:STM32F10x_StdPeriph_Driver/src/stm32f10x_gpio.c **** /*---------------------------- GPIO CRL Configuration ------------------------*/
 192:STM32F10x_StdPeriph_Driver/src/stm32f10x_gpio.c ****   /* Configure the eight low port pins */
 193:STM32F10x_StdPeriph_Driver/src/stm32f10x_gpio.c ****   if (((uint32_t)GPIO_InitStruct->GPIO_Pin & ((uint32_t)0x00FF)) != 0x00)
 466              		.loc 1 193 3 is_stmt 1 view .LVU107
 467              		.loc 1 193 6 is_stmt 0 view .LVU108
 468 00a6 2378     		ldrb	r3, [r4]	@ zero_extendqisi2
 469 00a8 002B     		cmp	r3, #0
 470 00aa 36D0     		beq	.L34
 194:STM32F10x_StdPeriph_Driver/src/stm32f10x_gpio.c ****   {
 195:STM32F10x_StdPeriph_Driver/src/stm32f10x_gpio.c ****     tmpreg = GPIOx->CRL;
 471              		.loc 1 195 5 is_stmt 1 view .LVU109
 472              		.loc 1 195 12 is_stmt 0 view .LVU110
 473 00ac 2E68     		ldr	r6, [r5]
 474              	.LVL55:
 196:STM32F10x_StdPeriph_Driver/src/stm32f10x_gpio.c ****     for (pinpos = 0x00; pinpos < 0x08; pinpos++)
 475              		.loc 1 196 5 is_stmt 1 view .LVU111
 476              		.loc 1 196 17 is_stmt 0 view .LVU112
 477 00ae 0023     		movs	r3, #0
 478              		.loc 1 196 5 view .LVU113
 479 00b0 19E0     		b	.L35
 480              	.LVL56:
 481              	.L52:
 179:STM32F10x_StdPeriph_Driver/src/stm32f10x_gpio.c ****   assert_param(IS_GPIO_PIN(GPIO_InitStruct->GPIO_Pin));  
 482              		.loc 1 179 3 view .LVU114
 483 00b2 0120     		movs	r0, #1
 484 00b4 E8E7     		b	.L32
 485              	.L53:
 486 00b6 0120     		movs	r0, #1
 487 00b8 E6E7     		b	.L32
 488              	.L54:
 489 00ba 0120     		movs	r0, #1
 490 00bc E4E7     		b	.L32
 491              	.L55:
 492 00be 0120     		movs	r0, #1
 493 00c0 E2E7     		b	.L32
 494              	.L56:
 495 00c2 0120     		movs	r0, #1
 496 00c4 E0E7     		b	.L32
 497              	.L57:
 498 00c6 0120     		movs	r0, #1
 499 00c8 DEE7     		b	.L32
 500              	.LVL57:
 501              	.L62:
 187:STM32F10x_StdPeriph_Driver/src/stm32f10x_gpio.c ****     /* Output mode */
 502              		.loc 1 187 5 is_stmt 1 view .LVU115
 187:STM32F10x_StdPeriph_Driver/src/stm32f10x_gpio.c ****     /* Output mode */
 503              		.loc 1 187 18 is_stmt 0 view .LVU116
 504 00ca A078     		ldrb	r0, [r4, #2]	@ zero_extendqisi2
 505              	.LVL58:
 187:STM32F10x_StdPeriph_Driver/src/stm32f10x_gpio.c ****     /* Output mode */
 506              		.loc 1 187 18 view .LVU117
 507 00cc 0138     		subs	r0, r0, #1
 508 00ce C0B2     		uxtb	r0, r0
 187:STM32F10x_StdPeriph_Driver/src/stm32f10x_gpio.c ****     /* Output mode */
 509              		.loc 1 187 5 view .LVU118
 510 00d0 0228     		cmp	r0, #2
 511 00d2 8CBF     		ite	hi
ARM GAS  C:\Users\Anoolv\AppData\Local\Temp\ccdSiwxa.s 			page 14


 512 00d4 0020     		movhi	r0, #0
 513 00d6 0120     		movls	r0, #1
 514 00d8 FFF7FEFF 		bl	assert_param
 515              	.LVL59:
 189:STM32F10x_StdPeriph_Driver/src/stm32f10x_gpio.c ****   }
 516              		.loc 1 189 5 is_stmt 1 view .LVU119
 189:STM32F10x_StdPeriph_Driver/src/stm32f10x_gpio.c ****   }
 517              		.loc 1 189 45 is_stmt 0 view .LVU120
 518 00dc A078     		ldrb	r0, [r4, #2]	@ zero_extendqisi2
 189:STM32F10x_StdPeriph_Driver/src/stm32f10x_gpio.c ****   }
 519              		.loc 1 189 17 view .LVU121
 520 00de 3043     		orrs	r0, r0, r6
 521              	.LVL60:
 189:STM32F10x_StdPeriph_Driver/src/stm32f10x_gpio.c ****   }
 522              		.loc 1 189 17 view .LVU122
 523 00e0 E1E7     		b	.L33
 524              	.LVL61:
 525              	.L64:
 197:STM32F10x_StdPeriph_Driver/src/stm32f10x_gpio.c ****     {
 198:STM32F10x_StdPeriph_Driver/src/stm32f10x_gpio.c ****       pos = ((uint32_t)0x01) << pinpos;
 199:STM32F10x_StdPeriph_Driver/src/stm32f10x_gpio.c ****       /* Get the port pins position */
 200:STM32F10x_StdPeriph_Driver/src/stm32f10x_gpio.c ****       currentpin = (GPIO_InitStruct->GPIO_Pin) & pos;
 201:STM32F10x_StdPeriph_Driver/src/stm32f10x_gpio.c ****       if (currentpin == pos)
 202:STM32F10x_StdPeriph_Driver/src/stm32f10x_gpio.c ****       {
 203:STM32F10x_StdPeriph_Driver/src/stm32f10x_gpio.c ****         pos = pinpos << 2;
 204:STM32F10x_StdPeriph_Driver/src/stm32f10x_gpio.c ****         /* Clear the corresponding low control register bits */
 205:STM32F10x_StdPeriph_Driver/src/stm32f10x_gpio.c ****         pinmask = ((uint32_t)0x0F) << pos;
 206:STM32F10x_StdPeriph_Driver/src/stm32f10x_gpio.c ****         tmpreg &= ~pinmask;
 207:STM32F10x_StdPeriph_Driver/src/stm32f10x_gpio.c ****         /* Write the mode configuration in the corresponding bits */
 208:STM32F10x_StdPeriph_Driver/src/stm32f10x_gpio.c ****         tmpreg |= (currentmode << pos);
 209:STM32F10x_StdPeriph_Driver/src/stm32f10x_gpio.c ****         /* Reset the corresponding ODR bit */
 210:STM32F10x_StdPeriph_Driver/src/stm32f10x_gpio.c ****         if (GPIO_InitStruct->GPIO_Mode == GPIO_Mode_IPD)
 211:STM32F10x_StdPeriph_Driver/src/stm32f10x_gpio.c ****         {
 212:STM32F10x_StdPeriph_Driver/src/stm32f10x_gpio.c ****           GPIOx->BRR = (((uint32_t)0x01) << pinpos);
 526              		.loc 1 212 11 is_stmt 1 view .LVU123
 527              		.loc 1 212 22 is_stmt 0 view .LVU124
 528 00e2 6A61     		str	r2, [r5, #20]
 529              	.LVL62:
 530              	.L36:
 196:STM32F10x_StdPeriph_Driver/src/stm32f10x_gpio.c ****     {
 531              		.loc 1 196 40 is_stmt 1 discriminator 2 view .LVU125
 196:STM32F10x_StdPeriph_Driver/src/stm32f10x_gpio.c ****     {
 532              		.loc 1 196 46 is_stmt 0 discriminator 2 view .LVU126
 533 00e4 0133     		adds	r3, r3, #1
 534              	.LVL63:
 535              	.L35:
 196:STM32F10x_StdPeriph_Driver/src/stm32f10x_gpio.c ****     {
 536              		.loc 1 196 25 is_stmt 1 discriminator 1 view .LVU127
 196:STM32F10x_StdPeriph_Driver/src/stm32f10x_gpio.c ****     {
 537              		.loc 1 196 5 is_stmt 0 discriminator 1 view .LVU128
 538 00e6 072B     		cmp	r3, #7
 539 00e8 16D8     		bhi	.L63
 198:STM32F10x_StdPeriph_Driver/src/stm32f10x_gpio.c ****       /* Get the port pins position */
 540              		.loc 1 198 7 is_stmt 1 view .LVU129
 198:STM32F10x_StdPeriph_Driver/src/stm32f10x_gpio.c ****       /* Get the port pins position */
 541              		.loc 1 198 11 is_stmt 0 view .LVU130
 542 00ea 0122     		movs	r2, #1
ARM GAS  C:\Users\Anoolv\AppData\Local\Temp\ccdSiwxa.s 			page 15


 543 00ec 9A40     		lsls	r2, r2, r3
 544              	.LVL64:
 200:STM32F10x_StdPeriph_Driver/src/stm32f10x_gpio.c ****       if (currentpin == pos)
 545              		.loc 1 200 7 is_stmt 1 view .LVU131
 200:STM32F10x_StdPeriph_Driver/src/stm32f10x_gpio.c ****       if (currentpin == pos)
 546              		.loc 1 200 36 is_stmt 0 view .LVU132
 547 00ee 2188     		ldrh	r1, [r4]
 548              	.LVL65:
 201:STM32F10x_StdPeriph_Driver/src/stm32f10x_gpio.c ****       {
 549              		.loc 1 201 7 is_stmt 1 view .LVU133
 201:STM32F10x_StdPeriph_Driver/src/stm32f10x_gpio.c ****       {
 550              		.loc 1 201 10 is_stmt 0 view .LVU134
 551 00f0 32EA0101 		bics	r1, r2, r1
 552              	.LVL66:
 201:STM32F10x_StdPeriph_Driver/src/stm32f10x_gpio.c ****       {
 553              		.loc 1 201 10 view .LVU135
 554 00f4 F6D1     		bne	.L36
 203:STM32F10x_StdPeriph_Driver/src/stm32f10x_gpio.c ****         /* Clear the corresponding low control register bits */
 555              		.loc 1 203 9 is_stmt 1 view .LVU136
 203:STM32F10x_StdPeriph_Driver/src/stm32f10x_gpio.c ****         /* Clear the corresponding low control register bits */
 556              		.loc 1 203 13 is_stmt 0 view .LVU137
 557 00f6 9900     		lsls	r1, r3, #2
 558              	.LVL67:
 205:STM32F10x_StdPeriph_Driver/src/stm32f10x_gpio.c ****         tmpreg &= ~pinmask;
 559              		.loc 1 205 9 is_stmt 1 view .LVU138
 205:STM32F10x_StdPeriph_Driver/src/stm32f10x_gpio.c ****         tmpreg &= ~pinmask;
 560              		.loc 1 205 17 is_stmt 0 view .LVU139
 561 00f8 4FF00F0C 		mov	ip, #15
 562 00fc 0CFA01FC 		lsl	ip, ip, r1
 563              	.LVL68:
 206:STM32F10x_StdPeriph_Driver/src/stm32f10x_gpio.c ****         /* Write the mode configuration in the corresponding bits */
 564              		.loc 1 206 9 is_stmt 1 view .LVU140
 206:STM32F10x_StdPeriph_Driver/src/stm32f10x_gpio.c ****         /* Write the mode configuration in the corresponding bits */
 565              		.loc 1 206 16 is_stmt 0 view .LVU141
 566 0100 26EA0C06 		bic	r6, r6, ip
 567              	.LVL69:
 208:STM32F10x_StdPeriph_Driver/src/stm32f10x_gpio.c ****         /* Reset the corresponding ODR bit */
 568              		.loc 1 208 9 is_stmt 1 view .LVU142
 208:STM32F10x_StdPeriph_Driver/src/stm32f10x_gpio.c ****         /* Reset the corresponding ODR bit */
 569              		.loc 1 208 32 is_stmt 0 view .LVU143
 570 0104 00FA01F1 		lsl	r1, r0, r1
 571              	.LVL70:
 208:STM32F10x_StdPeriph_Driver/src/stm32f10x_gpio.c ****         /* Reset the corresponding ODR bit */
 572              		.loc 1 208 16 view .LVU144
 573 0108 0E43     		orrs	r6, r6, r1
 574              	.LVL71:
 210:STM32F10x_StdPeriph_Driver/src/stm32f10x_gpio.c ****         {
 575              		.loc 1 210 9 is_stmt 1 view .LVU145
 210:STM32F10x_StdPeriph_Driver/src/stm32f10x_gpio.c ****         {
 576              		.loc 1 210 28 is_stmt 0 view .LVU146
 577 010a E178     		ldrb	r1, [r4, #3]	@ zero_extendqisi2
 210:STM32F10x_StdPeriph_Driver/src/stm32f10x_gpio.c ****         {
 578              		.loc 1 210 12 view .LVU147
 579 010c 2829     		cmp	r1, #40
 580 010e E8D0     		beq	.L64
 213:STM32F10x_StdPeriph_Driver/src/stm32f10x_gpio.c ****         }
 214:STM32F10x_StdPeriph_Driver/src/stm32f10x_gpio.c ****         else
ARM GAS  C:\Users\Anoolv\AppData\Local\Temp\ccdSiwxa.s 			page 16


 215:STM32F10x_StdPeriph_Driver/src/stm32f10x_gpio.c ****         {
 216:STM32F10x_StdPeriph_Driver/src/stm32f10x_gpio.c ****           /* Set the corresponding ODR bit */
 217:STM32F10x_StdPeriph_Driver/src/stm32f10x_gpio.c ****           if (GPIO_InitStruct->GPIO_Mode == GPIO_Mode_IPU)
 581              		.loc 1 217 11 is_stmt 1 view .LVU148
 582              		.loc 1 217 14 is_stmt 0 view .LVU149
 583 0110 4829     		cmp	r1, #72
 584 0112 E7D1     		bne	.L36
 218:STM32F10x_StdPeriph_Driver/src/stm32f10x_gpio.c ****           {
 219:STM32F10x_StdPeriph_Driver/src/stm32f10x_gpio.c ****             GPIOx->BSRR = (((uint32_t)0x01) << pinpos);
 585              		.loc 1 219 13 is_stmt 1 view .LVU150
 586              		.loc 1 219 25 is_stmt 0 view .LVU151
 587 0114 2A61     		str	r2, [r5, #16]
 588              	.LVL72:
 589              		.loc 1 219 25 view .LVU152
 590 0116 E5E7     		b	.L36
 591              	.LVL73:
 592              	.L63:
 220:STM32F10x_StdPeriph_Driver/src/stm32f10x_gpio.c ****           }
 221:STM32F10x_StdPeriph_Driver/src/stm32f10x_gpio.c ****         }
 222:STM32F10x_StdPeriph_Driver/src/stm32f10x_gpio.c ****       }
 223:STM32F10x_StdPeriph_Driver/src/stm32f10x_gpio.c ****     }
 224:STM32F10x_StdPeriph_Driver/src/stm32f10x_gpio.c ****     GPIOx->CRL = tmpreg;
 593              		.loc 1 224 5 is_stmt 1 view .LVU153
 594              		.loc 1 224 16 is_stmt 0 view .LVU154
 595 0118 2E60     		str	r6, [r5]
 596              	.LVL74:
 597              	.L34:
 225:STM32F10x_StdPeriph_Driver/src/stm32f10x_gpio.c ****   }
 226:STM32F10x_StdPeriph_Driver/src/stm32f10x_gpio.c **** /*---------------------------- GPIO CRH Configuration ------------------------*/
 227:STM32F10x_StdPeriph_Driver/src/stm32f10x_gpio.c ****   /* Configure the eight high port pins */
 228:STM32F10x_StdPeriph_Driver/src/stm32f10x_gpio.c ****   if (GPIO_InitStruct->GPIO_Pin > 0x00FF)
 598              		.loc 1 228 3 is_stmt 1 view .LVU155
 599              		.loc 1 228 22 is_stmt 0 view .LVU156
 600 011a 2388     		ldrh	r3, [r4]
 601              		.loc 1 228 6 view .LVU157
 602 011c FF2B     		cmp	r3, #255
 603 011e 22D9     		bls	.L30
 229:STM32F10x_StdPeriph_Driver/src/stm32f10x_gpio.c ****   {
 230:STM32F10x_StdPeriph_Driver/src/stm32f10x_gpio.c ****     tmpreg = GPIOx->CRH;
 604              		.loc 1 230 5 is_stmt 1 view .LVU158
 605              		.loc 1 230 12 is_stmt 0 view .LVU159
 606 0120 6E68     		ldr	r6, [r5, #4]
 607              	.LVL75:
 231:STM32F10x_StdPeriph_Driver/src/stm32f10x_gpio.c ****     for (pinpos = 0x00; pinpos < 0x08; pinpos++)
 608              		.loc 1 231 5 is_stmt 1 view .LVU160
 609              		.loc 1 231 17 is_stmt 0 view .LVU161
 610 0122 0023     		movs	r3, #0
 611              		.loc 1 231 5 view .LVU162
 612 0124 03E0     		b	.L40
 613              	.LVL76:
 614              	.L42:
 232:STM32F10x_StdPeriph_Driver/src/stm32f10x_gpio.c ****     {
 233:STM32F10x_StdPeriph_Driver/src/stm32f10x_gpio.c ****       pos = (((uint32_t)0x01) << (pinpos + 0x08));
 234:STM32F10x_StdPeriph_Driver/src/stm32f10x_gpio.c ****       /* Get the port pins position */
 235:STM32F10x_StdPeriph_Driver/src/stm32f10x_gpio.c ****       currentpin = ((GPIO_InitStruct->GPIO_Pin) & pos);
 236:STM32F10x_StdPeriph_Driver/src/stm32f10x_gpio.c ****       if (currentpin == pos)
 237:STM32F10x_StdPeriph_Driver/src/stm32f10x_gpio.c ****       {
ARM GAS  C:\Users\Anoolv\AppData\Local\Temp\ccdSiwxa.s 			page 17


 238:STM32F10x_StdPeriph_Driver/src/stm32f10x_gpio.c ****         pos = pinpos << 2;
 239:STM32F10x_StdPeriph_Driver/src/stm32f10x_gpio.c ****         /* Clear the corresponding high control register bits */
 240:STM32F10x_StdPeriph_Driver/src/stm32f10x_gpio.c ****         pinmask = ((uint32_t)0x0F) << pos;
 241:STM32F10x_StdPeriph_Driver/src/stm32f10x_gpio.c ****         tmpreg &= ~pinmask;
 242:STM32F10x_StdPeriph_Driver/src/stm32f10x_gpio.c ****         /* Write the mode configuration in the corresponding bits */
 243:STM32F10x_StdPeriph_Driver/src/stm32f10x_gpio.c ****         tmpreg |= (currentmode << pos);
 244:STM32F10x_StdPeriph_Driver/src/stm32f10x_gpio.c ****         /* Reset the corresponding ODR bit */
 245:STM32F10x_StdPeriph_Driver/src/stm32f10x_gpio.c ****         if (GPIO_InitStruct->GPIO_Mode == GPIO_Mode_IPD)
 246:STM32F10x_StdPeriph_Driver/src/stm32f10x_gpio.c ****         {
 247:STM32F10x_StdPeriph_Driver/src/stm32f10x_gpio.c ****           GPIOx->BRR = (((uint32_t)0x01) << (pinpos + 0x08));
 248:STM32F10x_StdPeriph_Driver/src/stm32f10x_gpio.c ****         }
 249:STM32F10x_StdPeriph_Driver/src/stm32f10x_gpio.c ****         /* Set the corresponding ODR bit */
 250:STM32F10x_StdPeriph_Driver/src/stm32f10x_gpio.c ****         if (GPIO_InitStruct->GPIO_Mode == GPIO_Mode_IPU)
 615              		.loc 1 250 9 is_stmt 1 view .LVU163
 616              		.loc 1 250 28 is_stmt 0 view .LVU164
 617 0126 E178     		ldrb	r1, [r4, #3]	@ zero_extendqisi2
 618              		.loc 1 250 12 view .LVU165
 619 0128 4829     		cmp	r1, #72
 620 012a 19D0     		beq	.L65
 621              	.LVL77:
 622              	.L41:
 231:STM32F10x_StdPeriph_Driver/src/stm32f10x_gpio.c ****     for (pinpos = 0x00; pinpos < 0x08; pinpos++)
 623              		.loc 1 231 40 is_stmt 1 discriminator 2 view .LVU166
 231:STM32F10x_StdPeriph_Driver/src/stm32f10x_gpio.c ****     for (pinpos = 0x00; pinpos < 0x08; pinpos++)
 624              		.loc 1 231 46 is_stmt 0 discriminator 2 view .LVU167
 625 012c 0133     		adds	r3, r3, #1
 626              	.LVL78:
 627              	.L40:
 231:STM32F10x_StdPeriph_Driver/src/stm32f10x_gpio.c ****     for (pinpos = 0x00; pinpos < 0x08; pinpos++)
 628              		.loc 1 231 25 is_stmt 1 discriminator 1 view .LVU168
 231:STM32F10x_StdPeriph_Driver/src/stm32f10x_gpio.c ****     for (pinpos = 0x00; pinpos < 0x08; pinpos++)
 629              		.loc 1 231 5 is_stmt 0 discriminator 1 view .LVU169
 630 012e 072B     		cmp	r3, #7
 631 0130 18D8     		bhi	.L66
 233:STM32F10x_StdPeriph_Driver/src/stm32f10x_gpio.c ****       /* Get the port pins position */
 632              		.loc 1 233 7 is_stmt 1 view .LVU170
 233:STM32F10x_StdPeriph_Driver/src/stm32f10x_gpio.c ****       /* Get the port pins position */
 633              		.loc 1 233 42 is_stmt 0 view .LVU171
 634 0132 03F10801 		add	r1, r3, #8
 233:STM32F10x_StdPeriph_Driver/src/stm32f10x_gpio.c ****       /* Get the port pins position */
 635              		.loc 1 233 11 view .LVU172
 636 0136 0122     		movs	r2, #1
 637 0138 8A40     		lsls	r2, r2, r1
 638              	.LVL79:
 235:STM32F10x_StdPeriph_Driver/src/stm32f10x_gpio.c ****       if (currentpin == pos)
 639              		.loc 1 235 7 is_stmt 1 view .LVU173
 235:STM32F10x_StdPeriph_Driver/src/stm32f10x_gpio.c ****       if (currentpin == pos)
 640              		.loc 1 235 37 is_stmt 0 view .LVU174
 641 013a 2188     		ldrh	r1, [r4]
 642              	.LVL80:
 236:STM32F10x_StdPeriph_Driver/src/stm32f10x_gpio.c ****       {
 643              		.loc 1 236 7 is_stmt 1 view .LVU175
 236:STM32F10x_StdPeriph_Driver/src/stm32f10x_gpio.c ****       {
 644              		.loc 1 236 10 is_stmt 0 view .LVU176
 645 013c 32EA0101 		bics	r1, r2, r1
 646              	.LVL81:
 236:STM32F10x_StdPeriph_Driver/src/stm32f10x_gpio.c ****       {
ARM GAS  C:\Users\Anoolv\AppData\Local\Temp\ccdSiwxa.s 			page 18


 647              		.loc 1 236 10 view .LVU177
 648 0140 F4D1     		bne	.L41
 238:STM32F10x_StdPeriph_Driver/src/stm32f10x_gpio.c ****         /* Clear the corresponding high control register bits */
 649              		.loc 1 238 9 is_stmt 1 view .LVU178
 238:STM32F10x_StdPeriph_Driver/src/stm32f10x_gpio.c ****         /* Clear the corresponding high control register bits */
 650              		.loc 1 238 13 is_stmt 0 view .LVU179
 651 0142 9900     		lsls	r1, r3, #2
 652              	.LVL82:
 240:STM32F10x_StdPeriph_Driver/src/stm32f10x_gpio.c ****         tmpreg &= ~pinmask;
 653              		.loc 1 240 9 is_stmt 1 view .LVU180
 240:STM32F10x_StdPeriph_Driver/src/stm32f10x_gpio.c ****         tmpreg &= ~pinmask;
 654              		.loc 1 240 17 is_stmt 0 view .LVU181
 655 0144 4FF00F0C 		mov	ip, #15
 656 0148 0CFA01FC 		lsl	ip, ip, r1
 657              	.LVL83:
 241:STM32F10x_StdPeriph_Driver/src/stm32f10x_gpio.c ****         /* Write the mode configuration in the corresponding bits */
 658              		.loc 1 241 9 is_stmt 1 view .LVU182
 241:STM32F10x_StdPeriph_Driver/src/stm32f10x_gpio.c ****         /* Write the mode configuration in the corresponding bits */
 659              		.loc 1 241 16 is_stmt 0 view .LVU183
 660 014c 26EA0C06 		bic	r6, r6, ip
 661              	.LVL84:
 243:STM32F10x_StdPeriph_Driver/src/stm32f10x_gpio.c ****         /* Reset the corresponding ODR bit */
 662              		.loc 1 243 9 is_stmt 1 view .LVU184
 243:STM32F10x_StdPeriph_Driver/src/stm32f10x_gpio.c ****         /* Reset the corresponding ODR bit */
 663              		.loc 1 243 32 is_stmt 0 view .LVU185
 664 0150 00FA01F1 		lsl	r1, r0, r1
 665              	.LVL85:
 243:STM32F10x_StdPeriph_Driver/src/stm32f10x_gpio.c ****         /* Reset the corresponding ODR bit */
 666              		.loc 1 243 16 view .LVU186
 667 0154 0E43     		orrs	r6, r6, r1
 668              	.LVL86:
 245:STM32F10x_StdPeriph_Driver/src/stm32f10x_gpio.c ****         {
 669              		.loc 1 245 9 is_stmt 1 view .LVU187
 245:STM32F10x_StdPeriph_Driver/src/stm32f10x_gpio.c ****         {
 670              		.loc 1 245 28 is_stmt 0 view .LVU188
 671 0156 E178     		ldrb	r1, [r4, #3]	@ zero_extendqisi2
 245:STM32F10x_StdPeriph_Driver/src/stm32f10x_gpio.c ****         {
 672              		.loc 1 245 12 view .LVU189
 673 0158 2829     		cmp	r1, #40
 674 015a E4D1     		bne	.L42
 247:STM32F10x_StdPeriph_Driver/src/stm32f10x_gpio.c ****         }
 675              		.loc 1 247 11 is_stmt 1 view .LVU190
 247:STM32F10x_StdPeriph_Driver/src/stm32f10x_gpio.c ****         }
 676              		.loc 1 247 22 is_stmt 0 view .LVU191
 677 015c 6A61     		str	r2, [r5, #20]
 678              	.LVL87:
 247:STM32F10x_StdPeriph_Driver/src/stm32f10x_gpio.c ****         }
 679              		.loc 1 247 22 view .LVU192
 680 015e E2E7     		b	.L42
 681              	.L65:
 251:STM32F10x_StdPeriph_Driver/src/stm32f10x_gpio.c ****         {
 252:STM32F10x_StdPeriph_Driver/src/stm32f10x_gpio.c ****           GPIOx->BSRR = (((uint32_t)0x01) << (pinpos + 0x08));
 682              		.loc 1 252 11 is_stmt 1 view .LVU193
 683              		.loc 1 252 23 is_stmt 0 view .LVU194
 684 0160 2A61     		str	r2, [r5, #16]
 685 0162 E3E7     		b	.L41
 686              	.LVL88:
ARM GAS  C:\Users\Anoolv\AppData\Local\Temp\ccdSiwxa.s 			page 19


 687              	.L66:
 253:STM32F10x_StdPeriph_Driver/src/stm32f10x_gpio.c ****         }
 254:STM32F10x_StdPeriph_Driver/src/stm32f10x_gpio.c ****       }
 255:STM32F10x_StdPeriph_Driver/src/stm32f10x_gpio.c ****     }
 256:STM32F10x_StdPeriph_Driver/src/stm32f10x_gpio.c ****     GPIOx->CRH = tmpreg;
 688              		.loc 1 256 5 is_stmt 1 view .LVU195
 689              		.loc 1 256 16 is_stmt 0 view .LVU196
 690 0164 6E60     		str	r6, [r5, #4]
 691              	.LVL89:
 692              	.L30:
 257:STM32F10x_StdPeriph_Driver/src/stm32f10x_gpio.c ****   }
 258:STM32F10x_StdPeriph_Driver/src/stm32f10x_gpio.c **** }
 693              		.loc 1 258 1 view .LVU197
 694 0166 70BD     		pop	{r4, r5, r6, pc}
 695              	.LVL90:
 696              	.L68:
 697              		.loc 1 258 1 view .LVU198
 698              		.align	2
 699              	.L67:
 700 0168 00080140 		.word	1073809408
 701              		.cfi_endproc
 702              	.LFE31:
 704              		.section	.text.GPIO_StructInit,"ax",%progbits
 705              		.align	1
 706              		.global	GPIO_StructInit
 707              		.syntax unified
 708              		.thumb
 709              		.thumb_func
 710              		.fpu softvfp
 712              	GPIO_StructInit:
 713              	.LVL91:
 714              	.LFB32:
 259:STM32F10x_StdPeriph_Driver/src/stm32f10x_gpio.c **** 
 260:STM32F10x_StdPeriph_Driver/src/stm32f10x_gpio.c **** /**
 261:STM32F10x_StdPeriph_Driver/src/stm32f10x_gpio.c ****   * @brief  Fills each GPIO_InitStruct member with its default value.
 262:STM32F10x_StdPeriph_Driver/src/stm32f10x_gpio.c ****   * @param  GPIO_InitStruct : pointer to a GPIO_InitTypeDef structure which will
 263:STM32F10x_StdPeriph_Driver/src/stm32f10x_gpio.c ****   *         be initialized.
 264:STM32F10x_StdPeriph_Driver/src/stm32f10x_gpio.c ****   * @retval None
 265:STM32F10x_StdPeriph_Driver/src/stm32f10x_gpio.c ****   */
 266:STM32F10x_StdPeriph_Driver/src/stm32f10x_gpio.c **** void GPIO_StructInit(GPIO_InitTypeDef* GPIO_InitStruct)
 267:STM32F10x_StdPeriph_Driver/src/stm32f10x_gpio.c **** {
 715              		.loc 1 267 1 is_stmt 1 view -0
 716              		.cfi_startproc
 717              		@ args = 0, pretend = 0, frame = 0
 718              		@ frame_needed = 0, uses_anonymous_args = 0
 719              		@ link register save eliminated.
 268:STM32F10x_StdPeriph_Driver/src/stm32f10x_gpio.c ****   /* Reset GPIO init structure parameters values */
 269:STM32F10x_StdPeriph_Driver/src/stm32f10x_gpio.c ****   GPIO_InitStruct->GPIO_Pin  = GPIO_Pin_All;
 720              		.loc 1 269 3 view .LVU200
 721              		.loc 1 269 30 is_stmt 0 view .LVU201
 722 0000 4FF6FF73 		movw	r3, #65535
 723 0004 0380     		strh	r3, [r0]	@ movhi
 270:STM32F10x_StdPeriph_Driver/src/stm32f10x_gpio.c ****   GPIO_InitStruct->GPIO_Speed = GPIO_Speed_2MHz;
 724              		.loc 1 270 3 is_stmt 1 view .LVU202
 725              		.loc 1 270 31 is_stmt 0 view .LVU203
 726 0006 0223     		movs	r3, #2
 727 0008 8370     		strb	r3, [r0, #2]
ARM GAS  C:\Users\Anoolv\AppData\Local\Temp\ccdSiwxa.s 			page 20


 271:STM32F10x_StdPeriph_Driver/src/stm32f10x_gpio.c ****   GPIO_InitStruct->GPIO_Mode = GPIO_Mode_IN_FLOATING;
 728              		.loc 1 271 3 is_stmt 1 view .LVU204
 729              		.loc 1 271 30 is_stmt 0 view .LVU205
 730 000a 0423     		movs	r3, #4
 731 000c C370     		strb	r3, [r0, #3]
 272:STM32F10x_StdPeriph_Driver/src/stm32f10x_gpio.c **** }
 732              		.loc 1 272 1 view .LVU206
 733 000e 7047     		bx	lr
 734              		.cfi_endproc
 735              	.LFE32:
 737              		.section	.text.GPIO_ReadInputDataBit,"ax",%progbits
 738              		.align	1
 739              		.global	GPIO_ReadInputDataBit
 740              		.syntax unified
 741              		.thumb
 742              		.thumb_func
 743              		.fpu softvfp
 745              	GPIO_ReadInputDataBit:
 746              	.LVL92:
 747              	.LFB33:
 273:STM32F10x_StdPeriph_Driver/src/stm32f10x_gpio.c **** 
 274:STM32F10x_StdPeriph_Driver/src/stm32f10x_gpio.c **** /**
 275:STM32F10x_StdPeriph_Driver/src/stm32f10x_gpio.c ****   * @brief  Reads the specified input port pin.
 276:STM32F10x_StdPeriph_Driver/src/stm32f10x_gpio.c ****   * @param  GPIOx: where x can be (A..G) to select the GPIO peripheral.
 277:STM32F10x_StdPeriph_Driver/src/stm32f10x_gpio.c ****   * @param  GPIO_Pin:  specifies the port bit to read.
 278:STM32F10x_StdPeriph_Driver/src/stm32f10x_gpio.c ****   *   This parameter can be GPIO_Pin_x where x can be (0..15).
 279:STM32F10x_StdPeriph_Driver/src/stm32f10x_gpio.c ****   * @retval The input port pin value.
 280:STM32F10x_StdPeriph_Driver/src/stm32f10x_gpio.c ****   */
 281:STM32F10x_StdPeriph_Driver/src/stm32f10x_gpio.c **** uint8_t GPIO_ReadInputDataBit(GPIO_TypeDef* GPIOx, uint16_t GPIO_Pin)
 282:STM32F10x_StdPeriph_Driver/src/stm32f10x_gpio.c **** {
 748              		.loc 1 282 1 is_stmt 1 view -0
 749              		.cfi_startproc
 750              		@ args = 0, pretend = 0, frame = 0
 751              		@ frame_needed = 0, uses_anonymous_args = 0
 752              		.loc 1 282 1 is_stmt 0 view .LVU208
 753 0000 38B5     		push	{r3, r4, r5, lr}
 754              	.LCFI3:
 755              		.cfi_def_cfa_offset 16
 756              		.cfi_offset 3, -16
 757              		.cfi_offset 4, -12
 758              		.cfi_offset 5, -8
 759              		.cfi_offset 14, -4
 760 0002 0446     		mov	r4, r0
 761 0004 0D46     		mov	r5, r1
 283:STM32F10x_StdPeriph_Driver/src/stm32f10x_gpio.c ****   uint8_t bitstatus = 0x00;
 762              		.loc 1 283 3 is_stmt 1 view .LVU209
 763              	.LVL93:
 284:STM32F10x_StdPeriph_Driver/src/stm32f10x_gpio.c ****   
 285:STM32F10x_StdPeriph_Driver/src/stm32f10x_gpio.c ****   /* Check the parameters */
 286:STM32F10x_StdPeriph_Driver/src/stm32f10x_gpio.c ****   assert_param(IS_GPIO_ALL_PERIPH(GPIOx));
 764              		.loc 1 286 3 view .LVU210
 765 0006 3E4B     		ldr	r3, .L100
 766 0008 9842     		cmp	r0, r3
 767 000a 1BD0     		beq	.L74
 768              		.loc 1 286 16 is_stmt 0 discriminator 2 view .LVU211
 769 000c 03F58063 		add	r3, r3, #1024
 770 0010 9842     		cmp	r0, r3
ARM GAS  C:\Users\Anoolv\AppData\Local\Temp\ccdSiwxa.s 			page 21


 771 0012 44D0     		beq	.L75
 772              		.loc 1 286 16 discriminator 4 view .LVU212
 773 0014 03F58063 		add	r3, r3, #1024
 774 0018 9842     		cmp	r0, r3
 775 001a 42D0     		beq	.L76
 776              		.loc 1 286 16 discriminator 6 view .LVU213
 777 001c 03F58063 		add	r3, r3, #1024
 778 0020 9842     		cmp	r0, r3
 779 0022 40D0     		beq	.L77
 780              		.loc 1 286 16 discriminator 8 view .LVU214
 781 0024 03F58063 		add	r3, r3, #1024
 782 0028 9842     		cmp	r0, r3
 783 002a 3ED0     		beq	.L78
 784              		.loc 1 286 16 discriminator 10 view .LVU215
 785 002c 03F58063 		add	r3, r3, #1024
 786 0030 9842     		cmp	r0, r3
 787 0032 3CD0     		beq	.L79
 788              		.loc 1 286 3 discriminator 12 view .LVU216
 789 0034 03F58063 		add	r3, r3, #1024
 790 0038 9842     		cmp	r0, r3
 791 003a 01D0     		beq	.L98
 792              		.loc 1 286 3 view .LVU217
 793 003c 0020     		movs	r0, #0
 794              	.LVL94:
 795              		.loc 1 286 3 view .LVU218
 796 003e 02E0     		b	.L71
 797              	.LVL95:
 798              	.L98:
 799              		.loc 1 286 3 view .LVU219
 800 0040 0120     		movs	r0, #1
 801              	.LVL96:
 802              		.loc 1 286 3 view .LVU220
 803 0042 00E0     		b	.L71
 804              	.LVL97:
 805              	.L74:
 806              		.loc 1 286 3 view .LVU221
 807 0044 0120     		movs	r0, #1
 808              	.LVL98:
 809              	.L71:
 810              		.loc 1 286 3 discriminator 16 view .LVU222
 811 0046 FFF7FEFF 		bl	assert_param
 812              	.LVL99:
 287:STM32F10x_StdPeriph_Driver/src/stm32f10x_gpio.c ****   assert_param(IS_GET_GPIO_PIN(GPIO_Pin)); 
 813              		.loc 1 287 3 is_stmt 1 discriminator 16 view .LVU223
 814              		.loc 1 287 16 is_stmt 0 discriminator 16 view .LVU224
 815 004a 6B1E     		subs	r3, r5, #1
 816 004c 9BB2     		uxth	r3, r3
 817              		.loc 1 287 3 discriminator 16 view .LVU225
 818 004e 012B     		cmp	r3, #1
 819 0050 31D9     		bls	.L81
 820              		.loc 1 287 16 discriminator 2 view .LVU226
 821 0052 042D     		cmp	r5, #4
 822 0054 37D0     		beq	.L82
 823              		.loc 1 287 16 discriminator 4 view .LVU227
 824 0056 082D     		cmp	r5, #8
 825 0058 37D0     		beq	.L83
 826              		.loc 1 287 16 discriminator 6 view .LVU228
ARM GAS  C:\Users\Anoolv\AppData\Local\Temp\ccdSiwxa.s 			page 22


 827 005a 102D     		cmp	r5, #16
 828 005c 37D0     		beq	.L84
 829              		.loc 1 287 16 discriminator 8 view .LVU229
 830 005e 202D     		cmp	r5, #32
 831 0060 37D0     		beq	.L85
 832              		.loc 1 287 16 discriminator 10 view .LVU230
 833 0062 402D     		cmp	r5, #64
 834 0064 37D0     		beq	.L86
 835              		.loc 1 287 16 discriminator 12 view .LVU231
 836 0066 802D     		cmp	r5, #128
 837 0068 37D0     		beq	.L87
 838              		.loc 1 287 16 discriminator 14 view .LVU232
 839 006a B5F5807F 		cmp	r5, #256
 840 006e 36D0     		beq	.L88
 841              		.loc 1 287 16 discriminator 16 view .LVU233
 842 0070 B5F5007F 		cmp	r5, #512
 843 0074 35D0     		beq	.L89
 844              		.loc 1 287 16 discriminator 18 view .LVU234
 845 0076 B5F5806F 		cmp	r5, #1024
 846 007a 34D0     		beq	.L90
 847              		.loc 1 287 16 discriminator 20 view .LVU235
 848 007c B5F5006F 		cmp	r5, #2048
 849 0080 33D0     		beq	.L91
 850              		.loc 1 287 16 discriminator 22 view .LVU236
 851 0082 B5F5805F 		cmp	r5, #4096
 852 0086 32D0     		beq	.L92
 853              		.loc 1 287 16 discriminator 24 view .LVU237
 854 0088 B5F5005F 		cmp	r5, #8192
 855 008c 31D0     		beq	.L93
 856              		.loc 1 287 16 discriminator 26 view .LVU238
 857 008e B5F5804F 		cmp	r5, #16384
 858 0092 30D0     		beq	.L94
 859              		.loc 1 287 3 discriminator 28 view .LVU239
 860 0094 B5F5004F 		cmp	r5, #32768
 861 0098 0BD0     		beq	.L99
 862              		.loc 1 287 3 view .LVU240
 863 009a 0020     		movs	r0, #0
 864 009c 0CE0     		b	.L72
 865              	.LVL100:
 866              	.L75:
 286:STM32F10x_StdPeriph_Driver/src/stm32f10x_gpio.c ****   assert_param(IS_GET_GPIO_PIN(GPIO_Pin)); 
 867              		.loc 1 286 3 view .LVU241
 868 009e 0120     		movs	r0, #1
 869              	.LVL101:
 286:STM32F10x_StdPeriph_Driver/src/stm32f10x_gpio.c ****   assert_param(IS_GET_GPIO_PIN(GPIO_Pin)); 
 870              		.loc 1 286 3 view .LVU242
 871 00a0 D1E7     		b	.L71
 872              	.LVL102:
 873              	.L76:
 286:STM32F10x_StdPeriph_Driver/src/stm32f10x_gpio.c ****   assert_param(IS_GET_GPIO_PIN(GPIO_Pin)); 
 874              		.loc 1 286 3 view .LVU243
 875 00a2 0120     		movs	r0, #1
 876              	.LVL103:
 286:STM32F10x_StdPeriph_Driver/src/stm32f10x_gpio.c ****   assert_param(IS_GET_GPIO_PIN(GPIO_Pin)); 
 877              		.loc 1 286 3 view .LVU244
 878 00a4 CFE7     		b	.L71
 879              	.LVL104:
ARM GAS  C:\Users\Anoolv\AppData\Local\Temp\ccdSiwxa.s 			page 23


 880              	.L77:
 286:STM32F10x_StdPeriph_Driver/src/stm32f10x_gpio.c ****   assert_param(IS_GET_GPIO_PIN(GPIO_Pin)); 
 881              		.loc 1 286 3 view .LVU245
 882 00a6 0120     		movs	r0, #1
 883              	.LVL105:
 286:STM32F10x_StdPeriph_Driver/src/stm32f10x_gpio.c ****   assert_param(IS_GET_GPIO_PIN(GPIO_Pin)); 
 884              		.loc 1 286 3 view .LVU246
 885 00a8 CDE7     		b	.L71
 886              	.LVL106:
 887              	.L78:
 286:STM32F10x_StdPeriph_Driver/src/stm32f10x_gpio.c ****   assert_param(IS_GET_GPIO_PIN(GPIO_Pin)); 
 888              		.loc 1 286 3 view .LVU247
 889 00aa 0120     		movs	r0, #1
 890              	.LVL107:
 286:STM32F10x_StdPeriph_Driver/src/stm32f10x_gpio.c ****   assert_param(IS_GET_GPIO_PIN(GPIO_Pin)); 
 891              		.loc 1 286 3 view .LVU248
 892 00ac CBE7     		b	.L71
 893              	.LVL108:
 894              	.L79:
 286:STM32F10x_StdPeriph_Driver/src/stm32f10x_gpio.c ****   assert_param(IS_GET_GPIO_PIN(GPIO_Pin)); 
 895              		.loc 1 286 3 view .LVU249
 896 00ae 0120     		movs	r0, #1
 897              	.LVL109:
 286:STM32F10x_StdPeriph_Driver/src/stm32f10x_gpio.c ****   assert_param(IS_GET_GPIO_PIN(GPIO_Pin)); 
 898              		.loc 1 286 3 view .LVU250
 899 00b0 C9E7     		b	.L71
 900              	.LVL110:
 901              	.L99:
 902              		.loc 1 287 3 view .LVU251
 903 00b2 0120     		movs	r0, #1
 904 00b4 00E0     		b	.L72
 905              	.L81:
 906 00b6 0120     		movs	r0, #1
 907              	.L72:
 908              		.loc 1 287 3 discriminator 32 view .LVU252
 909 00b8 FFF7FEFF 		bl	assert_param
 910              	.LVL111:
 288:STM32F10x_StdPeriph_Driver/src/stm32f10x_gpio.c ****   
 289:STM32F10x_StdPeriph_Driver/src/stm32f10x_gpio.c ****   if ((GPIOx->IDR & GPIO_Pin) != (uint32_t)Bit_RESET)
 911              		.loc 1 289 3 is_stmt 1 discriminator 32 view .LVU253
 912              		.loc 1 289 13 is_stmt 0 discriminator 32 view .LVU254
 913 00bc A368     		ldr	r3, [r4, #8]
 914              		.loc 1 289 6 discriminator 32 view .LVU255
 915 00be 1D42     		tst	r5, r3
 916 00c0 1BD0     		beq	.L96
 290:STM32F10x_StdPeriph_Driver/src/stm32f10x_gpio.c ****   {
 291:STM32F10x_StdPeriph_Driver/src/stm32f10x_gpio.c ****     bitstatus = (uint8_t)Bit_SET;
 917              		.loc 1 291 15 view .LVU256
 918 00c2 0120     		movs	r0, #1
 919              	.L73:
 920              	.LVL112:
 292:STM32F10x_StdPeriph_Driver/src/stm32f10x_gpio.c ****   }
 293:STM32F10x_StdPeriph_Driver/src/stm32f10x_gpio.c ****   else
 294:STM32F10x_StdPeriph_Driver/src/stm32f10x_gpio.c ****   {
 295:STM32F10x_StdPeriph_Driver/src/stm32f10x_gpio.c ****     bitstatus = (uint8_t)Bit_RESET;
 296:STM32F10x_StdPeriph_Driver/src/stm32f10x_gpio.c ****   }
 297:STM32F10x_StdPeriph_Driver/src/stm32f10x_gpio.c ****   return bitstatus;
ARM GAS  C:\Users\Anoolv\AppData\Local\Temp\ccdSiwxa.s 			page 24


 921              		.loc 1 297 3 is_stmt 1 view .LVU257
 298:STM32F10x_StdPeriph_Driver/src/stm32f10x_gpio.c **** }
 922              		.loc 1 298 1 is_stmt 0 view .LVU258
 923 00c4 38BD     		pop	{r3, r4, r5, pc}
 924              	.LVL113:
 925              	.L82:
 287:STM32F10x_StdPeriph_Driver/src/stm32f10x_gpio.c ****   
 926              		.loc 1 287 3 view .LVU259
 927 00c6 0120     		movs	r0, #1
 928 00c8 F6E7     		b	.L72
 929              	.L83:
 930 00ca 0120     		movs	r0, #1
 931 00cc F4E7     		b	.L72
 932              	.L84:
 933 00ce 0120     		movs	r0, #1
 934 00d0 F2E7     		b	.L72
 935              	.L85:
 936 00d2 0120     		movs	r0, #1
 937 00d4 F0E7     		b	.L72
 938              	.L86:
 939 00d6 0120     		movs	r0, #1
 940 00d8 EEE7     		b	.L72
 941              	.L87:
 942 00da 0120     		movs	r0, #1
 943 00dc ECE7     		b	.L72
 944              	.L88:
 945 00de 0120     		movs	r0, #1
 946 00e0 EAE7     		b	.L72
 947              	.L89:
 948 00e2 0120     		movs	r0, #1
 949 00e4 E8E7     		b	.L72
 950              	.L90:
 951 00e6 0120     		movs	r0, #1
 952 00e8 E6E7     		b	.L72
 953              	.L91:
 954 00ea 0120     		movs	r0, #1
 955 00ec E4E7     		b	.L72
 956              	.L92:
 957 00ee 0120     		movs	r0, #1
 958 00f0 E2E7     		b	.L72
 959              	.L93:
 960 00f2 0120     		movs	r0, #1
 961 00f4 E0E7     		b	.L72
 962              	.L94:
 963 00f6 0120     		movs	r0, #1
 964 00f8 DEE7     		b	.L72
 965              	.L96:
 295:STM32F10x_StdPeriph_Driver/src/stm32f10x_gpio.c ****   }
 966              		.loc 1 295 15 view .LVU260
 967 00fa 0020     		movs	r0, #0
 968 00fc E2E7     		b	.L73
 969              	.L101:
 970 00fe 00BF     		.align	2
 971              	.L100:
 972 0100 00080140 		.word	1073809408
 973              		.cfi_endproc
 974              	.LFE33:
ARM GAS  C:\Users\Anoolv\AppData\Local\Temp\ccdSiwxa.s 			page 25


 976              		.section	.text.GPIO_ReadInputData,"ax",%progbits
 977              		.align	1
 978              		.global	GPIO_ReadInputData
 979              		.syntax unified
 980              		.thumb
 981              		.thumb_func
 982              		.fpu softvfp
 984              	GPIO_ReadInputData:
 985              	.LVL114:
 986              	.LFB34:
 299:STM32F10x_StdPeriph_Driver/src/stm32f10x_gpio.c **** 
 300:STM32F10x_StdPeriph_Driver/src/stm32f10x_gpio.c **** /**
 301:STM32F10x_StdPeriph_Driver/src/stm32f10x_gpio.c ****   * @brief  Reads the specified GPIO input data port.
 302:STM32F10x_StdPeriph_Driver/src/stm32f10x_gpio.c ****   * @param  GPIOx: where x can be (A..G) to select the GPIO peripheral.
 303:STM32F10x_StdPeriph_Driver/src/stm32f10x_gpio.c ****   * @retval GPIO input data port value.
 304:STM32F10x_StdPeriph_Driver/src/stm32f10x_gpio.c ****   */
 305:STM32F10x_StdPeriph_Driver/src/stm32f10x_gpio.c **** uint16_t GPIO_ReadInputData(GPIO_TypeDef* GPIOx)
 306:STM32F10x_StdPeriph_Driver/src/stm32f10x_gpio.c **** {
 987              		.loc 1 306 1 is_stmt 1 view -0
 988              		.cfi_startproc
 989              		@ args = 0, pretend = 0, frame = 0
 990              		@ frame_needed = 0, uses_anonymous_args = 0
 991              		.loc 1 306 1 is_stmt 0 view .LVU262
 992 0000 10B5     		push	{r4, lr}
 993              	.LCFI4:
 994              		.cfi_def_cfa_offset 8
 995              		.cfi_offset 4, -8
 996              		.cfi_offset 14, -4
 997 0002 0446     		mov	r4, r0
 307:STM32F10x_StdPeriph_Driver/src/stm32f10x_gpio.c ****   /* Check the parameters */
 308:STM32F10x_StdPeriph_Driver/src/stm32f10x_gpio.c ****   assert_param(IS_GPIO_ALL_PERIPH(GPIOx));
 998              		.loc 1 308 3 is_stmt 1 view .LVU263
 999 0004 174B     		ldr	r3, .L113
 1000 0006 9842     		cmp	r0, r3
 1001 0008 1BD0     		beq	.L104
 1002              		.loc 1 308 16 is_stmt 0 discriminator 2 view .LVU264
 1003 000a 03F58063 		add	r3, r3, #1024
 1004 000e 9842     		cmp	r0, r3
 1005 0010 1DD0     		beq	.L105
 1006              		.loc 1 308 16 discriminator 4 view .LVU265
 1007 0012 03F58063 		add	r3, r3, #1024
 1008 0016 9842     		cmp	r0, r3
 1009 0018 1BD0     		beq	.L106
 1010              		.loc 1 308 16 discriminator 6 view .LVU266
 1011 001a 03F58063 		add	r3, r3, #1024
 1012 001e 9842     		cmp	r0, r3
 1013 0020 19D0     		beq	.L107
 1014              		.loc 1 308 16 discriminator 8 view .LVU267
 1015 0022 03F58063 		add	r3, r3, #1024
 1016 0026 9842     		cmp	r0, r3
 1017 0028 17D0     		beq	.L108
 1018              		.loc 1 308 16 discriminator 10 view .LVU268
 1019 002a 03F58063 		add	r3, r3, #1024
 1020 002e 9842     		cmp	r0, r3
 1021 0030 15D0     		beq	.L109
 1022              		.loc 1 308 3 discriminator 12 view .LVU269
 1023 0032 03F58063 		add	r3, r3, #1024
ARM GAS  C:\Users\Anoolv\AppData\Local\Temp\ccdSiwxa.s 			page 26


 1024 0036 9842     		cmp	r0, r3
 1025 0038 01D0     		beq	.L112
 1026              		.loc 1 308 3 view .LVU270
 1027 003a 0020     		movs	r0, #0
 1028              	.LVL115:
 1029              		.loc 1 308 3 view .LVU271
 1030 003c 02E0     		b	.L103
 1031              	.LVL116:
 1032              	.L112:
 1033              		.loc 1 308 3 view .LVU272
 1034 003e 0120     		movs	r0, #1
 1035              	.LVL117:
 1036              		.loc 1 308 3 view .LVU273
 1037 0040 00E0     		b	.L103
 1038              	.LVL118:
 1039              	.L104:
 1040              		.loc 1 308 3 view .LVU274
 1041 0042 0120     		movs	r0, #1
 1042              	.LVL119:
 1043              	.L103:
 1044              		.loc 1 308 3 discriminator 16 view .LVU275
 1045 0044 FFF7FEFF 		bl	assert_param
 1046              	.LVL120:
 309:STM32F10x_StdPeriph_Driver/src/stm32f10x_gpio.c ****   
 310:STM32F10x_StdPeriph_Driver/src/stm32f10x_gpio.c ****   return ((uint16_t)GPIOx->IDR);
 1047              		.loc 1 310 3 is_stmt 1 discriminator 16 view .LVU276
 1048              		.loc 1 310 26 is_stmt 0 discriminator 16 view .LVU277
 1049 0048 A068     		ldr	r0, [r4, #8]
 311:STM32F10x_StdPeriph_Driver/src/stm32f10x_gpio.c **** }
 1050              		.loc 1 311 1 discriminator 16 view .LVU278
 1051 004a 80B2     		uxth	r0, r0
 1052 004c 10BD     		pop	{r4, pc}
 1053              	.LVL121:
 1054              	.L105:
 308:STM32F10x_StdPeriph_Driver/src/stm32f10x_gpio.c ****   
 1055              		.loc 1 308 3 view .LVU279
 1056 004e 0120     		movs	r0, #1
 1057              	.LVL122:
 308:STM32F10x_StdPeriph_Driver/src/stm32f10x_gpio.c ****   
 1058              		.loc 1 308 3 view .LVU280
 1059 0050 F8E7     		b	.L103
 1060              	.LVL123:
 1061              	.L106:
 308:STM32F10x_StdPeriph_Driver/src/stm32f10x_gpio.c ****   
 1062              		.loc 1 308 3 view .LVU281
 1063 0052 0120     		movs	r0, #1
 1064              	.LVL124:
 308:STM32F10x_StdPeriph_Driver/src/stm32f10x_gpio.c ****   
 1065              		.loc 1 308 3 view .LVU282
 1066 0054 F6E7     		b	.L103
 1067              	.LVL125:
 1068              	.L107:
 308:STM32F10x_StdPeriph_Driver/src/stm32f10x_gpio.c ****   
 1069              		.loc 1 308 3 view .LVU283
 1070 0056 0120     		movs	r0, #1
 1071              	.LVL126:
 308:STM32F10x_StdPeriph_Driver/src/stm32f10x_gpio.c ****   
ARM GAS  C:\Users\Anoolv\AppData\Local\Temp\ccdSiwxa.s 			page 27


 1072              		.loc 1 308 3 view .LVU284
 1073 0058 F4E7     		b	.L103
 1074              	.LVL127:
 1075              	.L108:
 308:STM32F10x_StdPeriph_Driver/src/stm32f10x_gpio.c ****   
 1076              		.loc 1 308 3 view .LVU285
 1077 005a 0120     		movs	r0, #1
 1078              	.LVL128:
 308:STM32F10x_StdPeriph_Driver/src/stm32f10x_gpio.c ****   
 1079              		.loc 1 308 3 view .LVU286
 1080 005c F2E7     		b	.L103
 1081              	.LVL129:
 1082              	.L109:
 308:STM32F10x_StdPeriph_Driver/src/stm32f10x_gpio.c ****   
 1083              		.loc 1 308 3 view .LVU287
 1084 005e 0120     		movs	r0, #1
 1085              	.LVL130:
 308:STM32F10x_StdPeriph_Driver/src/stm32f10x_gpio.c ****   
 1086              		.loc 1 308 3 view .LVU288
 1087 0060 F0E7     		b	.L103
 1088              	.L114:
 1089 0062 00BF     		.align	2
 1090              	.L113:
 1091 0064 00080140 		.word	1073809408
 1092              		.cfi_endproc
 1093              	.LFE34:
 1095              		.section	.text.GPIO_ReadOutputDataBit,"ax",%progbits
 1096              		.align	1
 1097              		.global	GPIO_ReadOutputDataBit
 1098              		.syntax unified
 1099              		.thumb
 1100              		.thumb_func
 1101              		.fpu softvfp
 1103              	GPIO_ReadOutputDataBit:
 1104              	.LVL131:
 1105              	.LFB35:
 312:STM32F10x_StdPeriph_Driver/src/stm32f10x_gpio.c **** 
 313:STM32F10x_StdPeriph_Driver/src/stm32f10x_gpio.c **** /**
 314:STM32F10x_StdPeriph_Driver/src/stm32f10x_gpio.c ****   * @brief  Reads the specified output data port bit.
 315:STM32F10x_StdPeriph_Driver/src/stm32f10x_gpio.c ****   * @param  GPIOx: where x can be (A..G) to select the GPIO peripheral.
 316:STM32F10x_StdPeriph_Driver/src/stm32f10x_gpio.c ****   * @param  GPIO_Pin:  specifies the port bit to read.
 317:STM32F10x_StdPeriph_Driver/src/stm32f10x_gpio.c ****   *   This parameter can be GPIO_Pin_x where x can be (0..15).
 318:STM32F10x_StdPeriph_Driver/src/stm32f10x_gpio.c ****   * @retval The output port pin value.
 319:STM32F10x_StdPeriph_Driver/src/stm32f10x_gpio.c ****   */
 320:STM32F10x_StdPeriph_Driver/src/stm32f10x_gpio.c **** uint8_t GPIO_ReadOutputDataBit(GPIO_TypeDef* GPIOx, uint16_t GPIO_Pin)
 321:STM32F10x_StdPeriph_Driver/src/stm32f10x_gpio.c **** {
 1106              		.loc 1 321 1 is_stmt 1 view -0
 1107              		.cfi_startproc
 1108              		@ args = 0, pretend = 0, frame = 0
 1109              		@ frame_needed = 0, uses_anonymous_args = 0
 1110              		.loc 1 321 1 is_stmt 0 view .LVU290
 1111 0000 38B5     		push	{r3, r4, r5, lr}
 1112              	.LCFI5:
 1113              		.cfi_def_cfa_offset 16
 1114              		.cfi_offset 3, -16
 1115              		.cfi_offset 4, -12
 1116              		.cfi_offset 5, -8
ARM GAS  C:\Users\Anoolv\AppData\Local\Temp\ccdSiwxa.s 			page 28


 1117              		.cfi_offset 14, -4
 1118 0002 0446     		mov	r4, r0
 1119 0004 0D46     		mov	r5, r1
 322:STM32F10x_StdPeriph_Driver/src/stm32f10x_gpio.c ****   uint8_t bitstatus = 0x00;
 1120              		.loc 1 322 3 is_stmt 1 view .LVU291
 1121              	.LVL132:
 323:STM32F10x_StdPeriph_Driver/src/stm32f10x_gpio.c ****   /* Check the parameters */
 324:STM32F10x_StdPeriph_Driver/src/stm32f10x_gpio.c ****   assert_param(IS_GPIO_ALL_PERIPH(GPIOx));
 1122              		.loc 1 324 3 view .LVU292
 1123 0006 3E4B     		ldr	r3, .L145
 1124 0008 9842     		cmp	r0, r3
 1125 000a 1BD0     		beq	.L119
 1126              		.loc 1 324 16 is_stmt 0 discriminator 2 view .LVU293
 1127 000c 03F58063 		add	r3, r3, #1024
 1128 0010 9842     		cmp	r0, r3
 1129 0012 44D0     		beq	.L120
 1130              		.loc 1 324 16 discriminator 4 view .LVU294
 1131 0014 03F58063 		add	r3, r3, #1024
 1132 0018 9842     		cmp	r0, r3
 1133 001a 42D0     		beq	.L121
 1134              		.loc 1 324 16 discriminator 6 view .LVU295
 1135 001c 03F58063 		add	r3, r3, #1024
 1136 0020 9842     		cmp	r0, r3
 1137 0022 40D0     		beq	.L122
 1138              		.loc 1 324 16 discriminator 8 view .LVU296
 1139 0024 03F58063 		add	r3, r3, #1024
 1140 0028 9842     		cmp	r0, r3
 1141 002a 3ED0     		beq	.L123
 1142              		.loc 1 324 16 discriminator 10 view .LVU297
 1143 002c 03F58063 		add	r3, r3, #1024
 1144 0030 9842     		cmp	r0, r3
 1145 0032 3CD0     		beq	.L124
 1146              		.loc 1 324 3 discriminator 12 view .LVU298
 1147 0034 03F58063 		add	r3, r3, #1024
 1148 0038 9842     		cmp	r0, r3
 1149 003a 01D0     		beq	.L143
 1150              		.loc 1 324 3 view .LVU299
 1151 003c 0020     		movs	r0, #0
 1152              	.LVL133:
 1153              		.loc 1 324 3 view .LVU300
 1154 003e 02E0     		b	.L116
 1155              	.LVL134:
 1156              	.L143:
 1157              		.loc 1 324 3 view .LVU301
 1158 0040 0120     		movs	r0, #1
 1159              	.LVL135:
 1160              		.loc 1 324 3 view .LVU302
 1161 0042 00E0     		b	.L116
 1162              	.LVL136:
 1163              	.L119:
 1164              		.loc 1 324 3 view .LVU303
 1165 0044 0120     		movs	r0, #1
 1166              	.LVL137:
 1167              	.L116:
 1168              		.loc 1 324 3 discriminator 16 view .LVU304
 1169 0046 FFF7FEFF 		bl	assert_param
 1170              	.LVL138:
ARM GAS  C:\Users\Anoolv\AppData\Local\Temp\ccdSiwxa.s 			page 29


 325:STM32F10x_StdPeriph_Driver/src/stm32f10x_gpio.c ****   assert_param(IS_GET_GPIO_PIN(GPIO_Pin)); 
 1171              		.loc 1 325 3 is_stmt 1 discriminator 16 view .LVU305
 1172              		.loc 1 325 16 is_stmt 0 discriminator 16 view .LVU306
 1173 004a 6B1E     		subs	r3, r5, #1
 1174 004c 9BB2     		uxth	r3, r3
 1175              		.loc 1 325 3 discriminator 16 view .LVU307
 1176 004e 012B     		cmp	r3, #1
 1177 0050 31D9     		bls	.L126
 1178              		.loc 1 325 16 discriminator 2 view .LVU308
 1179 0052 042D     		cmp	r5, #4
 1180 0054 37D0     		beq	.L127
 1181              		.loc 1 325 16 discriminator 4 view .LVU309
 1182 0056 082D     		cmp	r5, #8
 1183 0058 37D0     		beq	.L128
 1184              		.loc 1 325 16 discriminator 6 view .LVU310
 1185 005a 102D     		cmp	r5, #16
 1186 005c 37D0     		beq	.L129
 1187              		.loc 1 325 16 discriminator 8 view .LVU311
 1188 005e 202D     		cmp	r5, #32
 1189 0060 37D0     		beq	.L130
 1190              		.loc 1 325 16 discriminator 10 view .LVU312
 1191 0062 402D     		cmp	r5, #64
 1192 0064 37D0     		beq	.L131
 1193              		.loc 1 325 16 discriminator 12 view .LVU313
 1194 0066 802D     		cmp	r5, #128
 1195 0068 37D0     		beq	.L132
 1196              		.loc 1 325 16 discriminator 14 view .LVU314
 1197 006a B5F5807F 		cmp	r5, #256
 1198 006e 36D0     		beq	.L133
 1199              		.loc 1 325 16 discriminator 16 view .LVU315
 1200 0070 B5F5007F 		cmp	r5, #512
 1201 0074 35D0     		beq	.L134
 1202              		.loc 1 325 16 discriminator 18 view .LVU316
 1203 0076 B5F5806F 		cmp	r5, #1024
 1204 007a 34D0     		beq	.L135
 1205              		.loc 1 325 16 discriminator 20 view .LVU317
 1206 007c B5F5006F 		cmp	r5, #2048
 1207 0080 33D0     		beq	.L136
 1208              		.loc 1 325 16 discriminator 22 view .LVU318
 1209 0082 B5F5805F 		cmp	r5, #4096
 1210 0086 32D0     		beq	.L137
 1211              		.loc 1 325 16 discriminator 24 view .LVU319
 1212 0088 B5F5005F 		cmp	r5, #8192
 1213 008c 31D0     		beq	.L138
 1214              		.loc 1 325 16 discriminator 26 view .LVU320
 1215 008e B5F5804F 		cmp	r5, #16384
 1216 0092 30D0     		beq	.L139
 1217              		.loc 1 325 3 discriminator 28 view .LVU321
 1218 0094 B5F5004F 		cmp	r5, #32768
 1219 0098 0BD0     		beq	.L144
 1220              		.loc 1 325 3 view .LVU322
 1221 009a 0020     		movs	r0, #0
 1222 009c 0CE0     		b	.L117
 1223              	.LVL139:
 1224              	.L120:
 324:STM32F10x_StdPeriph_Driver/src/stm32f10x_gpio.c ****   assert_param(IS_GET_GPIO_PIN(GPIO_Pin)); 
 1225              		.loc 1 324 3 view .LVU323
ARM GAS  C:\Users\Anoolv\AppData\Local\Temp\ccdSiwxa.s 			page 30


 1226 009e 0120     		movs	r0, #1
 1227              	.LVL140:
 324:STM32F10x_StdPeriph_Driver/src/stm32f10x_gpio.c ****   assert_param(IS_GET_GPIO_PIN(GPIO_Pin)); 
 1228              		.loc 1 324 3 view .LVU324
 1229 00a0 D1E7     		b	.L116
 1230              	.LVL141:
 1231              	.L121:
 324:STM32F10x_StdPeriph_Driver/src/stm32f10x_gpio.c ****   assert_param(IS_GET_GPIO_PIN(GPIO_Pin)); 
 1232              		.loc 1 324 3 view .LVU325
 1233 00a2 0120     		movs	r0, #1
 1234              	.LVL142:
 324:STM32F10x_StdPeriph_Driver/src/stm32f10x_gpio.c ****   assert_param(IS_GET_GPIO_PIN(GPIO_Pin)); 
 1235              		.loc 1 324 3 view .LVU326
 1236 00a4 CFE7     		b	.L116
 1237              	.LVL143:
 1238              	.L122:
 324:STM32F10x_StdPeriph_Driver/src/stm32f10x_gpio.c ****   assert_param(IS_GET_GPIO_PIN(GPIO_Pin)); 
 1239              		.loc 1 324 3 view .LVU327
 1240 00a6 0120     		movs	r0, #1
 1241              	.LVL144:
 324:STM32F10x_StdPeriph_Driver/src/stm32f10x_gpio.c ****   assert_param(IS_GET_GPIO_PIN(GPIO_Pin)); 
 1242              		.loc 1 324 3 view .LVU328
 1243 00a8 CDE7     		b	.L116
 1244              	.LVL145:
 1245              	.L123:
 324:STM32F10x_StdPeriph_Driver/src/stm32f10x_gpio.c ****   assert_param(IS_GET_GPIO_PIN(GPIO_Pin)); 
 1246              		.loc 1 324 3 view .LVU329
 1247 00aa 0120     		movs	r0, #1
 1248              	.LVL146:
 324:STM32F10x_StdPeriph_Driver/src/stm32f10x_gpio.c ****   assert_param(IS_GET_GPIO_PIN(GPIO_Pin)); 
 1249              		.loc 1 324 3 view .LVU330
 1250 00ac CBE7     		b	.L116
 1251              	.LVL147:
 1252              	.L124:
 324:STM32F10x_StdPeriph_Driver/src/stm32f10x_gpio.c ****   assert_param(IS_GET_GPIO_PIN(GPIO_Pin)); 
 1253              		.loc 1 324 3 view .LVU331
 1254 00ae 0120     		movs	r0, #1
 1255              	.LVL148:
 324:STM32F10x_StdPeriph_Driver/src/stm32f10x_gpio.c ****   assert_param(IS_GET_GPIO_PIN(GPIO_Pin)); 
 1256              		.loc 1 324 3 view .LVU332
 1257 00b0 C9E7     		b	.L116
 1258              	.LVL149:
 1259              	.L144:
 1260              		.loc 1 325 3 view .LVU333
 1261 00b2 0120     		movs	r0, #1
 1262 00b4 00E0     		b	.L117
 1263              	.L126:
 1264 00b6 0120     		movs	r0, #1
 1265              	.L117:
 1266              		.loc 1 325 3 discriminator 32 view .LVU334
 1267 00b8 FFF7FEFF 		bl	assert_param
 1268              	.LVL150:
 326:STM32F10x_StdPeriph_Driver/src/stm32f10x_gpio.c ****   
 327:STM32F10x_StdPeriph_Driver/src/stm32f10x_gpio.c ****   if ((GPIOx->ODR & GPIO_Pin) != (uint32_t)Bit_RESET)
 1269              		.loc 1 327 3 is_stmt 1 discriminator 32 view .LVU335
 1270              		.loc 1 327 13 is_stmt 0 discriminator 32 view .LVU336
 1271 00bc E368     		ldr	r3, [r4, #12]
ARM GAS  C:\Users\Anoolv\AppData\Local\Temp\ccdSiwxa.s 			page 31


 1272              		.loc 1 327 6 discriminator 32 view .LVU337
 1273 00be 1D42     		tst	r5, r3
 1274 00c0 1BD0     		beq	.L141
 328:STM32F10x_StdPeriph_Driver/src/stm32f10x_gpio.c ****   {
 329:STM32F10x_StdPeriph_Driver/src/stm32f10x_gpio.c ****     bitstatus = (uint8_t)Bit_SET;
 1275              		.loc 1 329 15 view .LVU338
 1276 00c2 0120     		movs	r0, #1
 1277              	.L118:
 1278              	.LVL151:
 330:STM32F10x_StdPeriph_Driver/src/stm32f10x_gpio.c ****   }
 331:STM32F10x_StdPeriph_Driver/src/stm32f10x_gpio.c ****   else
 332:STM32F10x_StdPeriph_Driver/src/stm32f10x_gpio.c ****   {
 333:STM32F10x_StdPeriph_Driver/src/stm32f10x_gpio.c ****     bitstatus = (uint8_t)Bit_RESET;
 334:STM32F10x_StdPeriph_Driver/src/stm32f10x_gpio.c ****   }
 335:STM32F10x_StdPeriph_Driver/src/stm32f10x_gpio.c ****   return bitstatus;
 1279              		.loc 1 335 3 is_stmt 1 view .LVU339
 336:STM32F10x_StdPeriph_Driver/src/stm32f10x_gpio.c **** }
 1280              		.loc 1 336 1 is_stmt 0 view .LVU340
 1281 00c4 38BD     		pop	{r3, r4, r5, pc}
 1282              	.LVL152:
 1283              	.L127:
 325:STM32F10x_StdPeriph_Driver/src/stm32f10x_gpio.c ****   
 1284              		.loc 1 325 3 view .LVU341
 1285 00c6 0120     		movs	r0, #1
 1286 00c8 F6E7     		b	.L117
 1287              	.L128:
 1288 00ca 0120     		movs	r0, #1
 1289 00cc F4E7     		b	.L117
 1290              	.L129:
 1291 00ce 0120     		movs	r0, #1
 1292 00d0 F2E7     		b	.L117
 1293              	.L130:
 1294 00d2 0120     		movs	r0, #1
 1295 00d4 F0E7     		b	.L117
 1296              	.L131:
 1297 00d6 0120     		movs	r0, #1
 1298 00d8 EEE7     		b	.L117
 1299              	.L132:
 1300 00da 0120     		movs	r0, #1
 1301 00dc ECE7     		b	.L117
 1302              	.L133:
 1303 00de 0120     		movs	r0, #1
 1304 00e0 EAE7     		b	.L117
 1305              	.L134:
 1306 00e2 0120     		movs	r0, #1
 1307 00e4 E8E7     		b	.L117
 1308              	.L135:
 1309 00e6 0120     		movs	r0, #1
 1310 00e8 E6E7     		b	.L117
 1311              	.L136:
 1312 00ea 0120     		movs	r0, #1
 1313 00ec E4E7     		b	.L117
 1314              	.L137:
 1315 00ee 0120     		movs	r0, #1
 1316 00f0 E2E7     		b	.L117
 1317              	.L138:
 1318 00f2 0120     		movs	r0, #1
ARM GAS  C:\Users\Anoolv\AppData\Local\Temp\ccdSiwxa.s 			page 32


 1319 00f4 E0E7     		b	.L117
 1320              	.L139:
 1321 00f6 0120     		movs	r0, #1
 1322 00f8 DEE7     		b	.L117
 1323              	.L141:
 333:STM32F10x_StdPeriph_Driver/src/stm32f10x_gpio.c ****   }
 1324              		.loc 1 333 15 view .LVU342
 1325 00fa 0020     		movs	r0, #0
 1326 00fc E2E7     		b	.L118
 1327              	.L146:
 1328 00fe 00BF     		.align	2
 1329              	.L145:
 1330 0100 00080140 		.word	1073809408
 1331              		.cfi_endproc
 1332              	.LFE35:
 1334              		.section	.text.GPIO_ReadOutputData,"ax",%progbits
 1335              		.align	1
 1336              		.global	GPIO_ReadOutputData
 1337              		.syntax unified
 1338              		.thumb
 1339              		.thumb_func
 1340              		.fpu softvfp
 1342              	GPIO_ReadOutputData:
 1343              	.LVL153:
 1344              	.LFB36:
 337:STM32F10x_StdPeriph_Driver/src/stm32f10x_gpio.c **** 
 338:STM32F10x_StdPeriph_Driver/src/stm32f10x_gpio.c **** /**
 339:STM32F10x_StdPeriph_Driver/src/stm32f10x_gpio.c ****   * @brief  Reads the specified GPIO output data port.
 340:STM32F10x_StdPeriph_Driver/src/stm32f10x_gpio.c ****   * @param  GPIOx: where x can be (A..G) to select the GPIO peripheral.
 341:STM32F10x_StdPeriph_Driver/src/stm32f10x_gpio.c ****   * @retval GPIO output data port value.
 342:STM32F10x_StdPeriph_Driver/src/stm32f10x_gpio.c ****   */
 343:STM32F10x_StdPeriph_Driver/src/stm32f10x_gpio.c **** uint16_t GPIO_ReadOutputData(GPIO_TypeDef* GPIOx)
 344:STM32F10x_StdPeriph_Driver/src/stm32f10x_gpio.c **** {
 1345              		.loc 1 344 1 is_stmt 1 view -0
 1346              		.cfi_startproc
 1347              		@ args = 0, pretend = 0, frame = 0
 1348              		@ frame_needed = 0, uses_anonymous_args = 0
 1349              		.loc 1 344 1 is_stmt 0 view .LVU344
 1350 0000 10B5     		push	{r4, lr}
 1351              	.LCFI6:
 1352              		.cfi_def_cfa_offset 8
 1353              		.cfi_offset 4, -8
 1354              		.cfi_offset 14, -4
 1355 0002 0446     		mov	r4, r0
 345:STM32F10x_StdPeriph_Driver/src/stm32f10x_gpio.c ****   /* Check the parameters */
 346:STM32F10x_StdPeriph_Driver/src/stm32f10x_gpio.c ****   assert_param(IS_GPIO_ALL_PERIPH(GPIOx));
 1356              		.loc 1 346 3 is_stmt 1 view .LVU345
 1357 0004 174B     		ldr	r3, .L158
 1358 0006 9842     		cmp	r0, r3
 1359 0008 1BD0     		beq	.L149
 1360              		.loc 1 346 16 is_stmt 0 discriminator 2 view .LVU346
 1361 000a 03F58063 		add	r3, r3, #1024
 1362 000e 9842     		cmp	r0, r3
 1363 0010 1DD0     		beq	.L150
 1364              		.loc 1 346 16 discriminator 4 view .LVU347
 1365 0012 03F58063 		add	r3, r3, #1024
 1366 0016 9842     		cmp	r0, r3
ARM GAS  C:\Users\Anoolv\AppData\Local\Temp\ccdSiwxa.s 			page 33


 1367 0018 1BD0     		beq	.L151
 1368              		.loc 1 346 16 discriminator 6 view .LVU348
 1369 001a 03F58063 		add	r3, r3, #1024
 1370 001e 9842     		cmp	r0, r3
 1371 0020 19D0     		beq	.L152
 1372              		.loc 1 346 16 discriminator 8 view .LVU349
 1373 0022 03F58063 		add	r3, r3, #1024
 1374 0026 9842     		cmp	r0, r3
 1375 0028 17D0     		beq	.L153
 1376              		.loc 1 346 16 discriminator 10 view .LVU350
 1377 002a 03F58063 		add	r3, r3, #1024
 1378 002e 9842     		cmp	r0, r3
 1379 0030 15D0     		beq	.L154
 1380              		.loc 1 346 3 discriminator 12 view .LVU351
 1381 0032 03F58063 		add	r3, r3, #1024
 1382 0036 9842     		cmp	r0, r3
 1383 0038 01D0     		beq	.L157
 1384              		.loc 1 346 3 view .LVU352
 1385 003a 0020     		movs	r0, #0
 1386              	.LVL154:
 1387              		.loc 1 346 3 view .LVU353
 1388 003c 02E0     		b	.L148
 1389              	.LVL155:
 1390              	.L157:
 1391              		.loc 1 346 3 view .LVU354
 1392 003e 0120     		movs	r0, #1
 1393              	.LVL156:
 1394              		.loc 1 346 3 view .LVU355
 1395 0040 00E0     		b	.L148
 1396              	.LVL157:
 1397              	.L149:
 1398              		.loc 1 346 3 view .LVU356
 1399 0042 0120     		movs	r0, #1
 1400              	.LVL158:
 1401              	.L148:
 1402              		.loc 1 346 3 discriminator 16 view .LVU357
 1403 0044 FFF7FEFF 		bl	assert_param
 1404              	.LVL159:
 347:STM32F10x_StdPeriph_Driver/src/stm32f10x_gpio.c ****     
 348:STM32F10x_StdPeriph_Driver/src/stm32f10x_gpio.c ****   return ((uint16_t)GPIOx->ODR);
 1405              		.loc 1 348 3 is_stmt 1 discriminator 16 view .LVU358
 1406              		.loc 1 348 26 is_stmt 0 discriminator 16 view .LVU359
 1407 0048 E068     		ldr	r0, [r4, #12]
 349:STM32F10x_StdPeriph_Driver/src/stm32f10x_gpio.c **** }
 1408              		.loc 1 349 1 discriminator 16 view .LVU360
 1409 004a 80B2     		uxth	r0, r0
 1410 004c 10BD     		pop	{r4, pc}
 1411              	.LVL160:
 1412              	.L150:
 346:STM32F10x_StdPeriph_Driver/src/stm32f10x_gpio.c ****     
 1413              		.loc 1 346 3 view .LVU361
 1414 004e 0120     		movs	r0, #1
 1415              	.LVL161:
 346:STM32F10x_StdPeriph_Driver/src/stm32f10x_gpio.c ****     
 1416              		.loc 1 346 3 view .LVU362
 1417 0050 F8E7     		b	.L148
 1418              	.LVL162:
ARM GAS  C:\Users\Anoolv\AppData\Local\Temp\ccdSiwxa.s 			page 34


 1419              	.L151:
 346:STM32F10x_StdPeriph_Driver/src/stm32f10x_gpio.c ****     
 1420              		.loc 1 346 3 view .LVU363
 1421 0052 0120     		movs	r0, #1
 1422              	.LVL163:
 346:STM32F10x_StdPeriph_Driver/src/stm32f10x_gpio.c ****     
 1423              		.loc 1 346 3 view .LVU364
 1424 0054 F6E7     		b	.L148
 1425              	.LVL164:
 1426              	.L152:
 346:STM32F10x_StdPeriph_Driver/src/stm32f10x_gpio.c ****     
 1427              		.loc 1 346 3 view .LVU365
 1428 0056 0120     		movs	r0, #1
 1429              	.LVL165:
 346:STM32F10x_StdPeriph_Driver/src/stm32f10x_gpio.c ****     
 1430              		.loc 1 346 3 view .LVU366
 1431 0058 F4E7     		b	.L148
 1432              	.LVL166:
 1433              	.L153:
 346:STM32F10x_StdPeriph_Driver/src/stm32f10x_gpio.c ****     
 1434              		.loc 1 346 3 view .LVU367
 1435 005a 0120     		movs	r0, #1
 1436              	.LVL167:
 346:STM32F10x_StdPeriph_Driver/src/stm32f10x_gpio.c ****     
 1437              		.loc 1 346 3 view .LVU368
 1438 005c F2E7     		b	.L148
 1439              	.LVL168:
 1440              	.L154:
 346:STM32F10x_StdPeriph_Driver/src/stm32f10x_gpio.c ****     
 1441              		.loc 1 346 3 view .LVU369
 1442 005e 0120     		movs	r0, #1
 1443              	.LVL169:
 346:STM32F10x_StdPeriph_Driver/src/stm32f10x_gpio.c ****     
 1444              		.loc 1 346 3 view .LVU370
 1445 0060 F0E7     		b	.L148
 1446              	.L159:
 1447 0062 00BF     		.align	2
 1448              	.L158:
 1449 0064 00080140 		.word	1073809408
 1450              		.cfi_endproc
 1451              	.LFE36:
 1453              		.section	.text.GPIO_SetBits,"ax",%progbits
 1454              		.align	1
 1455              		.global	GPIO_SetBits
 1456              		.syntax unified
 1457              		.thumb
 1458              		.thumb_func
 1459              		.fpu softvfp
 1461              	GPIO_SetBits:
 1462              	.LVL170:
 1463              	.LFB37:
 350:STM32F10x_StdPeriph_Driver/src/stm32f10x_gpio.c **** 
 351:STM32F10x_StdPeriph_Driver/src/stm32f10x_gpio.c **** /**
 352:STM32F10x_StdPeriph_Driver/src/stm32f10x_gpio.c ****   * @brief  Sets the selected data port bits.
 353:STM32F10x_StdPeriph_Driver/src/stm32f10x_gpio.c ****   * @param  GPIOx: where x can be (A..G) to select the GPIO peripheral.
 354:STM32F10x_StdPeriph_Driver/src/stm32f10x_gpio.c ****   * @param  GPIO_Pin: specifies the port bits to be written.
 355:STM32F10x_StdPeriph_Driver/src/stm32f10x_gpio.c ****   *   This parameter can be any combination of GPIO_Pin_x where x can be (0..15).
ARM GAS  C:\Users\Anoolv\AppData\Local\Temp\ccdSiwxa.s 			page 35


 356:STM32F10x_StdPeriph_Driver/src/stm32f10x_gpio.c ****   * @retval None
 357:STM32F10x_StdPeriph_Driver/src/stm32f10x_gpio.c ****   */
 358:STM32F10x_StdPeriph_Driver/src/stm32f10x_gpio.c **** void GPIO_SetBits(GPIO_TypeDef* GPIOx, uint16_t GPIO_Pin)
 359:STM32F10x_StdPeriph_Driver/src/stm32f10x_gpio.c **** {
 1464              		.loc 1 359 1 is_stmt 1 view -0
 1465              		.cfi_startproc
 1466              		@ args = 0, pretend = 0, frame = 0
 1467              		@ frame_needed = 0, uses_anonymous_args = 0
 1468              		.loc 1 359 1 is_stmt 0 view .LVU372
 1469 0000 38B5     		push	{r3, r4, r5, lr}
 1470              	.LCFI7:
 1471              		.cfi_def_cfa_offset 16
 1472              		.cfi_offset 3, -16
 1473              		.cfi_offset 4, -12
 1474              		.cfi_offset 5, -8
 1475              		.cfi_offset 14, -4
 1476 0002 0446     		mov	r4, r0
 1477 0004 0D46     		mov	r5, r1
 360:STM32F10x_StdPeriph_Driver/src/stm32f10x_gpio.c ****   /* Check the parameters */
 361:STM32F10x_StdPeriph_Driver/src/stm32f10x_gpio.c ****   assert_param(IS_GPIO_ALL_PERIPH(GPIOx));
 1478              		.loc 1 361 3 is_stmt 1 view .LVU373
 1479 0006 194B     		ldr	r3, .L171
 1480 0008 9842     		cmp	r0, r3
 1481 000a 1BD0     		beq	.L162
 1482              		.loc 1 361 16 is_stmt 0 discriminator 2 view .LVU374
 1483 000c 03F58063 		add	r3, r3, #1024
 1484 0010 9842     		cmp	r0, r3
 1485 0012 21D0     		beq	.L163
 1486              		.loc 1 361 16 discriminator 4 view .LVU375
 1487 0014 03F58063 		add	r3, r3, #1024
 1488 0018 9842     		cmp	r0, r3
 1489 001a 1FD0     		beq	.L164
 1490              		.loc 1 361 16 discriminator 6 view .LVU376
 1491 001c 03F58063 		add	r3, r3, #1024
 1492 0020 9842     		cmp	r0, r3
 1493 0022 1DD0     		beq	.L165
 1494              		.loc 1 361 16 discriminator 8 view .LVU377
 1495 0024 03F58063 		add	r3, r3, #1024
 1496 0028 9842     		cmp	r0, r3
 1497 002a 1BD0     		beq	.L166
 1498              		.loc 1 361 16 discriminator 10 view .LVU378
 1499 002c 03F58063 		add	r3, r3, #1024
 1500 0030 9842     		cmp	r0, r3
 1501 0032 19D0     		beq	.L167
 1502              		.loc 1 361 3 discriminator 12 view .LVU379
 1503 0034 03F58063 		add	r3, r3, #1024
 1504 0038 9842     		cmp	r0, r3
 1505 003a 01D0     		beq	.L170
 1506              		.loc 1 361 3 view .LVU380
 1507 003c 0020     		movs	r0, #0
 1508              	.LVL171:
 1509              		.loc 1 361 3 view .LVU381
 1510 003e 02E0     		b	.L161
 1511              	.LVL172:
 1512              	.L170:
 1513              		.loc 1 361 3 view .LVU382
 1514 0040 0120     		movs	r0, #1
ARM GAS  C:\Users\Anoolv\AppData\Local\Temp\ccdSiwxa.s 			page 36


 1515              	.LVL173:
 1516              		.loc 1 361 3 view .LVU383
 1517 0042 00E0     		b	.L161
 1518              	.LVL174:
 1519              	.L162:
 1520              		.loc 1 361 3 view .LVU384
 1521 0044 0120     		movs	r0, #1
 1522              	.LVL175:
 1523              	.L161:
 1524              		.loc 1 361 3 discriminator 16 view .LVU385
 1525 0046 FFF7FEFF 		bl	assert_param
 1526              	.LVL176:
 362:STM32F10x_StdPeriph_Driver/src/stm32f10x_gpio.c ****   assert_param(IS_GPIO_PIN(GPIO_Pin));
 1527              		.loc 1 362 3 is_stmt 1 discriminator 16 view .LVU386
 1528 004a 281E     		subs	r0, r5, #0
 1529 004c 18BF     		it	ne
 1530 004e 0120     		movne	r0, #1
 1531 0050 FFF7FEFF 		bl	assert_param
 1532              	.LVL177:
 363:STM32F10x_StdPeriph_Driver/src/stm32f10x_gpio.c ****   
 364:STM32F10x_StdPeriph_Driver/src/stm32f10x_gpio.c ****   GPIOx->BSRR = GPIO_Pin;
 1533              		.loc 1 364 3 discriminator 16 view .LVU387
 1534              		.loc 1 364 15 is_stmt 0 discriminator 16 view .LVU388
 1535 0054 2561     		str	r5, [r4, #16]
 365:STM32F10x_StdPeriph_Driver/src/stm32f10x_gpio.c **** }
 1536              		.loc 1 365 1 discriminator 16 view .LVU389
 1537 0056 38BD     		pop	{r3, r4, r5, pc}
 1538              	.LVL178:
 1539              	.L163:
 361:STM32F10x_StdPeriph_Driver/src/stm32f10x_gpio.c ****   assert_param(IS_GPIO_PIN(GPIO_Pin));
 1540              		.loc 1 361 3 view .LVU390
 1541 0058 0120     		movs	r0, #1
 1542              	.LVL179:
 361:STM32F10x_StdPeriph_Driver/src/stm32f10x_gpio.c ****   assert_param(IS_GPIO_PIN(GPIO_Pin));
 1543              		.loc 1 361 3 view .LVU391
 1544 005a F4E7     		b	.L161
 1545              	.LVL180:
 1546              	.L164:
 361:STM32F10x_StdPeriph_Driver/src/stm32f10x_gpio.c ****   assert_param(IS_GPIO_PIN(GPIO_Pin));
 1547              		.loc 1 361 3 view .LVU392
 1548 005c 0120     		movs	r0, #1
 1549              	.LVL181:
 361:STM32F10x_StdPeriph_Driver/src/stm32f10x_gpio.c ****   assert_param(IS_GPIO_PIN(GPIO_Pin));
 1550              		.loc 1 361 3 view .LVU393
 1551 005e F2E7     		b	.L161
 1552              	.LVL182:
 1553              	.L165:
 361:STM32F10x_StdPeriph_Driver/src/stm32f10x_gpio.c ****   assert_param(IS_GPIO_PIN(GPIO_Pin));
 1554              		.loc 1 361 3 view .LVU394
 1555 0060 0120     		movs	r0, #1
 1556              	.LVL183:
 361:STM32F10x_StdPeriph_Driver/src/stm32f10x_gpio.c ****   assert_param(IS_GPIO_PIN(GPIO_Pin));
 1557              		.loc 1 361 3 view .LVU395
 1558 0062 F0E7     		b	.L161
 1559              	.LVL184:
 1560              	.L166:
 361:STM32F10x_StdPeriph_Driver/src/stm32f10x_gpio.c ****   assert_param(IS_GPIO_PIN(GPIO_Pin));
ARM GAS  C:\Users\Anoolv\AppData\Local\Temp\ccdSiwxa.s 			page 37


 1561              		.loc 1 361 3 view .LVU396
 1562 0064 0120     		movs	r0, #1
 1563              	.LVL185:
 361:STM32F10x_StdPeriph_Driver/src/stm32f10x_gpio.c ****   assert_param(IS_GPIO_PIN(GPIO_Pin));
 1564              		.loc 1 361 3 view .LVU397
 1565 0066 EEE7     		b	.L161
 1566              	.LVL186:
 1567              	.L167:
 361:STM32F10x_StdPeriph_Driver/src/stm32f10x_gpio.c ****   assert_param(IS_GPIO_PIN(GPIO_Pin));
 1568              		.loc 1 361 3 view .LVU398
 1569 0068 0120     		movs	r0, #1
 1570              	.LVL187:
 361:STM32F10x_StdPeriph_Driver/src/stm32f10x_gpio.c ****   assert_param(IS_GPIO_PIN(GPIO_Pin));
 1571              		.loc 1 361 3 view .LVU399
 1572 006a ECE7     		b	.L161
 1573              	.L172:
 1574              		.align	2
 1575              	.L171:
 1576 006c 00080140 		.word	1073809408
 1577              		.cfi_endproc
 1578              	.LFE37:
 1580              		.section	.text.GPIO_ResetBits,"ax",%progbits
 1581              		.align	1
 1582              		.global	GPIO_ResetBits
 1583              		.syntax unified
 1584              		.thumb
 1585              		.thumb_func
 1586              		.fpu softvfp
 1588              	GPIO_ResetBits:
 1589              	.LVL188:
 1590              	.LFB38:
 366:STM32F10x_StdPeriph_Driver/src/stm32f10x_gpio.c **** 
 367:STM32F10x_StdPeriph_Driver/src/stm32f10x_gpio.c **** /**
 368:STM32F10x_StdPeriph_Driver/src/stm32f10x_gpio.c ****   * @brief  Clears the selected data port bits.
 369:STM32F10x_StdPeriph_Driver/src/stm32f10x_gpio.c ****   * @param  GPIOx: where x can be (A..G) to select the GPIO peripheral.
 370:STM32F10x_StdPeriph_Driver/src/stm32f10x_gpio.c ****   * @param  GPIO_Pin: specifies the port bits to be written.
 371:STM32F10x_StdPeriph_Driver/src/stm32f10x_gpio.c ****   *   This parameter can be any combination of GPIO_Pin_x where x can be (0..15).
 372:STM32F10x_StdPeriph_Driver/src/stm32f10x_gpio.c ****   * @retval None
 373:STM32F10x_StdPeriph_Driver/src/stm32f10x_gpio.c ****   */
 374:STM32F10x_StdPeriph_Driver/src/stm32f10x_gpio.c **** void GPIO_ResetBits(GPIO_TypeDef* GPIOx, uint16_t GPIO_Pin)
 375:STM32F10x_StdPeriph_Driver/src/stm32f10x_gpio.c **** {
 1591              		.loc 1 375 1 is_stmt 1 view -0
 1592              		.cfi_startproc
 1593              		@ args = 0, pretend = 0, frame = 0
 1594              		@ frame_needed = 0, uses_anonymous_args = 0
 1595              		.loc 1 375 1 is_stmt 0 view .LVU401
 1596 0000 38B5     		push	{r3, r4, r5, lr}
 1597              	.LCFI8:
 1598              		.cfi_def_cfa_offset 16
 1599              		.cfi_offset 3, -16
 1600              		.cfi_offset 4, -12
 1601              		.cfi_offset 5, -8
 1602              		.cfi_offset 14, -4
 1603 0002 0446     		mov	r4, r0
 1604 0004 0D46     		mov	r5, r1
 376:STM32F10x_StdPeriph_Driver/src/stm32f10x_gpio.c ****   /* Check the parameters */
 377:STM32F10x_StdPeriph_Driver/src/stm32f10x_gpio.c ****   assert_param(IS_GPIO_ALL_PERIPH(GPIOx));
ARM GAS  C:\Users\Anoolv\AppData\Local\Temp\ccdSiwxa.s 			page 38


 1605              		.loc 1 377 3 is_stmt 1 view .LVU402
 1606 0006 194B     		ldr	r3, .L184
 1607 0008 9842     		cmp	r0, r3
 1608 000a 1BD0     		beq	.L175
 1609              		.loc 1 377 16 is_stmt 0 discriminator 2 view .LVU403
 1610 000c 03F58063 		add	r3, r3, #1024
 1611 0010 9842     		cmp	r0, r3
 1612 0012 21D0     		beq	.L176
 1613              		.loc 1 377 16 discriminator 4 view .LVU404
 1614 0014 03F58063 		add	r3, r3, #1024
 1615 0018 9842     		cmp	r0, r3
 1616 001a 1FD0     		beq	.L177
 1617              		.loc 1 377 16 discriminator 6 view .LVU405
 1618 001c 03F58063 		add	r3, r3, #1024
 1619 0020 9842     		cmp	r0, r3
 1620 0022 1DD0     		beq	.L178
 1621              		.loc 1 377 16 discriminator 8 view .LVU406
 1622 0024 03F58063 		add	r3, r3, #1024
 1623 0028 9842     		cmp	r0, r3
 1624 002a 1BD0     		beq	.L179
 1625              		.loc 1 377 16 discriminator 10 view .LVU407
 1626 002c 03F58063 		add	r3, r3, #1024
 1627 0030 9842     		cmp	r0, r3
 1628 0032 19D0     		beq	.L180
 1629              		.loc 1 377 3 discriminator 12 view .LVU408
 1630 0034 03F58063 		add	r3, r3, #1024
 1631 0038 9842     		cmp	r0, r3
 1632 003a 01D0     		beq	.L183
 1633              		.loc 1 377 3 view .LVU409
 1634 003c 0020     		movs	r0, #0
 1635              	.LVL189:
 1636              		.loc 1 377 3 view .LVU410
 1637 003e 02E0     		b	.L174
 1638              	.LVL190:
 1639              	.L183:
 1640              		.loc 1 377 3 view .LVU411
 1641 0040 0120     		movs	r0, #1
 1642              	.LVL191:
 1643              		.loc 1 377 3 view .LVU412
 1644 0042 00E0     		b	.L174
 1645              	.LVL192:
 1646              	.L175:
 1647              		.loc 1 377 3 view .LVU413
 1648 0044 0120     		movs	r0, #1
 1649              	.LVL193:
 1650              	.L174:
 1651              		.loc 1 377 3 discriminator 16 view .LVU414
 1652 0046 FFF7FEFF 		bl	assert_param
 1653              	.LVL194:
 378:STM32F10x_StdPeriph_Driver/src/stm32f10x_gpio.c ****   assert_param(IS_GPIO_PIN(GPIO_Pin));
 1654              		.loc 1 378 3 is_stmt 1 discriminator 16 view .LVU415
 1655 004a 281E     		subs	r0, r5, #0
 1656 004c 18BF     		it	ne
 1657 004e 0120     		movne	r0, #1
 1658 0050 FFF7FEFF 		bl	assert_param
 1659              	.LVL195:
 379:STM32F10x_StdPeriph_Driver/src/stm32f10x_gpio.c ****   
ARM GAS  C:\Users\Anoolv\AppData\Local\Temp\ccdSiwxa.s 			page 39


 380:STM32F10x_StdPeriph_Driver/src/stm32f10x_gpio.c ****   GPIOx->BRR = GPIO_Pin;
 1660              		.loc 1 380 3 discriminator 16 view .LVU416
 1661              		.loc 1 380 14 is_stmt 0 discriminator 16 view .LVU417
 1662 0054 6561     		str	r5, [r4, #20]
 381:STM32F10x_StdPeriph_Driver/src/stm32f10x_gpio.c **** }
 1663              		.loc 1 381 1 discriminator 16 view .LVU418
 1664 0056 38BD     		pop	{r3, r4, r5, pc}
 1665              	.LVL196:
 1666              	.L176:
 377:STM32F10x_StdPeriph_Driver/src/stm32f10x_gpio.c ****   assert_param(IS_GPIO_PIN(GPIO_Pin));
 1667              		.loc 1 377 3 view .LVU419
 1668 0058 0120     		movs	r0, #1
 1669              	.LVL197:
 377:STM32F10x_StdPeriph_Driver/src/stm32f10x_gpio.c ****   assert_param(IS_GPIO_PIN(GPIO_Pin));
 1670              		.loc 1 377 3 view .LVU420
 1671 005a F4E7     		b	.L174
 1672              	.LVL198:
 1673              	.L177:
 377:STM32F10x_StdPeriph_Driver/src/stm32f10x_gpio.c ****   assert_param(IS_GPIO_PIN(GPIO_Pin));
 1674              		.loc 1 377 3 view .LVU421
 1675 005c 0120     		movs	r0, #1
 1676              	.LVL199:
 377:STM32F10x_StdPeriph_Driver/src/stm32f10x_gpio.c ****   assert_param(IS_GPIO_PIN(GPIO_Pin));
 1677              		.loc 1 377 3 view .LVU422
 1678 005e F2E7     		b	.L174
 1679              	.LVL200:
 1680              	.L178:
 377:STM32F10x_StdPeriph_Driver/src/stm32f10x_gpio.c ****   assert_param(IS_GPIO_PIN(GPIO_Pin));
 1681              		.loc 1 377 3 view .LVU423
 1682 0060 0120     		movs	r0, #1
 1683              	.LVL201:
 377:STM32F10x_StdPeriph_Driver/src/stm32f10x_gpio.c ****   assert_param(IS_GPIO_PIN(GPIO_Pin));
 1684              		.loc 1 377 3 view .LVU424
 1685 0062 F0E7     		b	.L174
 1686              	.LVL202:
 1687              	.L179:
 377:STM32F10x_StdPeriph_Driver/src/stm32f10x_gpio.c ****   assert_param(IS_GPIO_PIN(GPIO_Pin));
 1688              		.loc 1 377 3 view .LVU425
 1689 0064 0120     		movs	r0, #1
 1690              	.LVL203:
 377:STM32F10x_StdPeriph_Driver/src/stm32f10x_gpio.c ****   assert_param(IS_GPIO_PIN(GPIO_Pin));
 1691              		.loc 1 377 3 view .LVU426
 1692 0066 EEE7     		b	.L174
 1693              	.LVL204:
 1694              	.L180:
 377:STM32F10x_StdPeriph_Driver/src/stm32f10x_gpio.c ****   assert_param(IS_GPIO_PIN(GPIO_Pin));
 1695              		.loc 1 377 3 view .LVU427
 1696 0068 0120     		movs	r0, #1
 1697              	.LVL205:
 377:STM32F10x_StdPeriph_Driver/src/stm32f10x_gpio.c ****   assert_param(IS_GPIO_PIN(GPIO_Pin));
 1698              		.loc 1 377 3 view .LVU428
 1699 006a ECE7     		b	.L174
 1700              	.L185:
 1701              		.align	2
 1702              	.L184:
 1703 006c 00080140 		.word	1073809408
 1704              		.cfi_endproc
ARM GAS  C:\Users\Anoolv\AppData\Local\Temp\ccdSiwxa.s 			page 40


 1705              	.LFE38:
 1707              		.section	.text.GPIO_WriteBit,"ax",%progbits
 1708              		.align	1
 1709              		.global	GPIO_WriteBit
 1710              		.syntax unified
 1711              		.thumb
 1712              		.thumb_func
 1713              		.fpu softvfp
 1715              	GPIO_WriteBit:
 1716              	.LVL206:
 1717              	.LFB39:
 382:STM32F10x_StdPeriph_Driver/src/stm32f10x_gpio.c **** 
 383:STM32F10x_StdPeriph_Driver/src/stm32f10x_gpio.c **** /**
 384:STM32F10x_StdPeriph_Driver/src/stm32f10x_gpio.c ****   * @brief  Sets or clears the selected data port bit.
 385:STM32F10x_StdPeriph_Driver/src/stm32f10x_gpio.c ****   * @param  GPIOx: where x can be (A..G) to select the GPIO peripheral.
 386:STM32F10x_StdPeriph_Driver/src/stm32f10x_gpio.c ****   * @param  GPIO_Pin: specifies the port bit to be written.
 387:STM32F10x_StdPeriph_Driver/src/stm32f10x_gpio.c ****   *   This parameter can be one of GPIO_Pin_x where x can be (0..15).
 388:STM32F10x_StdPeriph_Driver/src/stm32f10x_gpio.c ****   * @param  BitVal: specifies the value to be written to the selected bit.
 389:STM32F10x_StdPeriph_Driver/src/stm32f10x_gpio.c ****   *   This parameter can be one of the BitAction enum values:
 390:STM32F10x_StdPeriph_Driver/src/stm32f10x_gpio.c ****   *     @arg Bit_RESET: to clear the port pin
 391:STM32F10x_StdPeriph_Driver/src/stm32f10x_gpio.c ****   *     @arg Bit_SET: to set the port pin
 392:STM32F10x_StdPeriph_Driver/src/stm32f10x_gpio.c ****   * @retval None
 393:STM32F10x_StdPeriph_Driver/src/stm32f10x_gpio.c ****   */
 394:STM32F10x_StdPeriph_Driver/src/stm32f10x_gpio.c **** void GPIO_WriteBit(GPIO_TypeDef* GPIOx, uint16_t GPIO_Pin, BitAction BitVal)
 395:STM32F10x_StdPeriph_Driver/src/stm32f10x_gpio.c **** {
 1718              		.loc 1 395 1 is_stmt 1 view -0
 1719              		.cfi_startproc
 1720              		@ args = 0, pretend = 0, frame = 0
 1721              		@ frame_needed = 0, uses_anonymous_args = 0
 1722              		.loc 1 395 1 is_stmt 0 view .LVU430
 1723 0000 70B5     		push	{r4, r5, r6, lr}
 1724              	.LCFI9:
 1725              		.cfi_def_cfa_offset 16
 1726              		.cfi_offset 4, -16
 1727              		.cfi_offset 5, -12
 1728              		.cfi_offset 6, -8
 1729              		.cfi_offset 14, -4
 1730 0002 0446     		mov	r4, r0
 1731 0004 0D46     		mov	r5, r1
 1732 0006 1646     		mov	r6, r2
 396:STM32F10x_StdPeriph_Driver/src/stm32f10x_gpio.c ****   /* Check the parameters */
 397:STM32F10x_StdPeriph_Driver/src/stm32f10x_gpio.c ****   assert_param(IS_GPIO_ALL_PERIPH(GPIOx));
 1733              		.loc 1 397 3 is_stmt 1 view .LVU431
 1734 0008 3F4B     		ldr	r3, .L216
 1735 000a 9842     		cmp	r0, r3
 1736 000c 1BD0     		beq	.L191
 1737              		.loc 1 397 16 is_stmt 0 discriminator 2 view .LVU432
 1738 000e 03F58063 		add	r3, r3, #1024
 1739 0012 9842     		cmp	r0, r3
 1740 0014 44D0     		beq	.L192
 1741              		.loc 1 397 16 discriminator 4 view .LVU433
 1742 0016 03F58063 		add	r3, r3, #1024
 1743 001a 9842     		cmp	r0, r3
 1744 001c 42D0     		beq	.L193
 1745              		.loc 1 397 16 discriminator 6 view .LVU434
 1746 001e 03F58063 		add	r3, r3, #1024
 1747 0022 9842     		cmp	r0, r3
ARM GAS  C:\Users\Anoolv\AppData\Local\Temp\ccdSiwxa.s 			page 41


 1748 0024 40D0     		beq	.L194
 1749              		.loc 1 397 16 discriminator 8 view .LVU435
 1750 0026 03F58063 		add	r3, r3, #1024
 1751 002a 9842     		cmp	r0, r3
 1752 002c 3ED0     		beq	.L195
 1753              		.loc 1 397 16 discriminator 10 view .LVU436
 1754 002e 03F58063 		add	r3, r3, #1024
 1755 0032 9842     		cmp	r0, r3
 1756 0034 3CD0     		beq	.L196
 1757              		.loc 1 397 3 discriminator 12 view .LVU437
 1758 0036 03F58063 		add	r3, r3, #1024
 1759 003a 9842     		cmp	r0, r3
 1760 003c 01D0     		beq	.L214
 1761              		.loc 1 397 3 view .LVU438
 1762 003e 0020     		movs	r0, #0
 1763              	.LVL207:
 1764              		.loc 1 397 3 view .LVU439
 1765 0040 02E0     		b	.L187
 1766              	.LVL208:
 1767              	.L214:
 1768              		.loc 1 397 3 view .LVU440
 1769 0042 0120     		movs	r0, #1
 1770              	.LVL209:
 1771              		.loc 1 397 3 view .LVU441
 1772 0044 00E0     		b	.L187
 1773              	.LVL210:
 1774              	.L191:
 1775              		.loc 1 397 3 view .LVU442
 1776 0046 0120     		movs	r0, #1
 1777              	.LVL211:
 1778              	.L187:
 1779              		.loc 1 397 3 discriminator 16 view .LVU443
 1780 0048 FFF7FEFF 		bl	assert_param
 1781              	.LVL212:
 398:STM32F10x_StdPeriph_Driver/src/stm32f10x_gpio.c ****   assert_param(IS_GET_GPIO_PIN(GPIO_Pin));
 1782              		.loc 1 398 3 is_stmt 1 discriminator 16 view .LVU444
 1783              		.loc 1 398 16 is_stmt 0 discriminator 16 view .LVU445
 1784 004c 6B1E     		subs	r3, r5, #1
 1785 004e 9BB2     		uxth	r3, r3
 1786              		.loc 1 398 3 discriminator 16 view .LVU446
 1787 0050 012B     		cmp	r3, #1
 1788 0052 31D9     		bls	.L198
 1789              		.loc 1 398 16 discriminator 2 view .LVU447
 1790 0054 042D     		cmp	r5, #4
 1791 0056 3BD0     		beq	.L199
 1792              		.loc 1 398 16 discriminator 4 view .LVU448
 1793 0058 082D     		cmp	r5, #8
 1794 005a 3BD0     		beq	.L200
 1795              		.loc 1 398 16 discriminator 6 view .LVU449
 1796 005c 102D     		cmp	r5, #16
 1797 005e 3BD0     		beq	.L201
 1798              		.loc 1 398 16 discriminator 8 view .LVU450
 1799 0060 202D     		cmp	r5, #32
 1800 0062 3BD0     		beq	.L202
 1801              		.loc 1 398 16 discriminator 10 view .LVU451
 1802 0064 402D     		cmp	r5, #64
 1803 0066 3BD0     		beq	.L203
ARM GAS  C:\Users\Anoolv\AppData\Local\Temp\ccdSiwxa.s 			page 42


 1804              		.loc 1 398 16 discriminator 12 view .LVU452
 1805 0068 802D     		cmp	r5, #128
 1806 006a 3BD0     		beq	.L204
 1807              		.loc 1 398 16 discriminator 14 view .LVU453
 1808 006c B5F5807F 		cmp	r5, #256
 1809 0070 3AD0     		beq	.L205
 1810              		.loc 1 398 16 discriminator 16 view .LVU454
 1811 0072 B5F5007F 		cmp	r5, #512
 1812 0076 39D0     		beq	.L206
 1813              		.loc 1 398 16 discriminator 18 view .LVU455
 1814 0078 B5F5806F 		cmp	r5, #1024
 1815 007c 38D0     		beq	.L207
 1816              		.loc 1 398 16 discriminator 20 view .LVU456
 1817 007e B5F5006F 		cmp	r5, #2048
 1818 0082 37D0     		beq	.L208
 1819              		.loc 1 398 16 discriminator 22 view .LVU457
 1820 0084 B5F5805F 		cmp	r5, #4096
 1821 0088 36D0     		beq	.L209
 1822              		.loc 1 398 16 discriminator 24 view .LVU458
 1823 008a B5F5005F 		cmp	r5, #8192
 1824 008e 35D0     		beq	.L210
 1825              		.loc 1 398 16 discriminator 26 view .LVU459
 1826 0090 B5F5804F 		cmp	r5, #16384
 1827 0094 34D0     		beq	.L211
 1828              		.loc 1 398 3 discriminator 28 view .LVU460
 1829 0096 B5F5004F 		cmp	r5, #32768
 1830 009a 0BD0     		beq	.L215
 1831              		.loc 1 398 3 view .LVU461
 1832 009c 0020     		movs	r0, #0
 1833 009e 0CE0     		b	.L188
 1834              	.LVL213:
 1835              	.L192:
 397:STM32F10x_StdPeriph_Driver/src/stm32f10x_gpio.c ****   assert_param(IS_GET_GPIO_PIN(GPIO_Pin));
 1836              		.loc 1 397 3 view .LVU462
 1837 00a0 0120     		movs	r0, #1
 1838              	.LVL214:
 397:STM32F10x_StdPeriph_Driver/src/stm32f10x_gpio.c ****   assert_param(IS_GET_GPIO_PIN(GPIO_Pin));
 1839              		.loc 1 397 3 view .LVU463
 1840 00a2 D1E7     		b	.L187
 1841              	.LVL215:
 1842              	.L193:
 397:STM32F10x_StdPeriph_Driver/src/stm32f10x_gpio.c ****   assert_param(IS_GET_GPIO_PIN(GPIO_Pin));
 1843              		.loc 1 397 3 view .LVU464
 1844 00a4 0120     		movs	r0, #1
 1845              	.LVL216:
 397:STM32F10x_StdPeriph_Driver/src/stm32f10x_gpio.c ****   assert_param(IS_GET_GPIO_PIN(GPIO_Pin));
 1846              		.loc 1 397 3 view .LVU465
 1847 00a6 CFE7     		b	.L187
 1848              	.LVL217:
 1849              	.L194:
 397:STM32F10x_StdPeriph_Driver/src/stm32f10x_gpio.c ****   assert_param(IS_GET_GPIO_PIN(GPIO_Pin));
 1850              		.loc 1 397 3 view .LVU466
 1851 00a8 0120     		movs	r0, #1
 1852              	.LVL218:
 397:STM32F10x_StdPeriph_Driver/src/stm32f10x_gpio.c ****   assert_param(IS_GET_GPIO_PIN(GPIO_Pin));
 1853              		.loc 1 397 3 view .LVU467
 1854 00aa CDE7     		b	.L187
ARM GAS  C:\Users\Anoolv\AppData\Local\Temp\ccdSiwxa.s 			page 43


 1855              	.LVL219:
 1856              	.L195:
 397:STM32F10x_StdPeriph_Driver/src/stm32f10x_gpio.c ****   assert_param(IS_GET_GPIO_PIN(GPIO_Pin));
 1857              		.loc 1 397 3 view .LVU468
 1858 00ac 0120     		movs	r0, #1
 1859              	.LVL220:
 397:STM32F10x_StdPeriph_Driver/src/stm32f10x_gpio.c ****   assert_param(IS_GET_GPIO_PIN(GPIO_Pin));
 1860              		.loc 1 397 3 view .LVU469
 1861 00ae CBE7     		b	.L187
 1862              	.LVL221:
 1863              	.L196:
 397:STM32F10x_StdPeriph_Driver/src/stm32f10x_gpio.c ****   assert_param(IS_GET_GPIO_PIN(GPIO_Pin));
 1864              		.loc 1 397 3 view .LVU470
 1865 00b0 0120     		movs	r0, #1
 1866              	.LVL222:
 397:STM32F10x_StdPeriph_Driver/src/stm32f10x_gpio.c ****   assert_param(IS_GET_GPIO_PIN(GPIO_Pin));
 1867              		.loc 1 397 3 view .LVU471
 1868 00b2 C9E7     		b	.L187
 1869              	.LVL223:
 1870              	.L215:
 1871              		.loc 1 398 3 view .LVU472
 1872 00b4 0120     		movs	r0, #1
 1873 00b6 00E0     		b	.L188
 1874              	.L198:
 1875 00b8 0120     		movs	r0, #1
 1876              	.L188:
 1877              		.loc 1 398 3 discriminator 32 view .LVU473
 1878 00ba FFF7FEFF 		bl	assert_param
 1879              	.LVL224:
 399:STM32F10x_StdPeriph_Driver/src/stm32f10x_gpio.c ****   assert_param(IS_GPIO_BIT_ACTION(BitVal)); 
 1880              		.loc 1 399 3 is_stmt 1 discriminator 32 view .LVU474
 1881 00be 012E     		cmp	r6, #1
 1882 00c0 8CBF     		ite	hi
 1883 00c2 0020     		movhi	r0, #0
 1884 00c4 0120     		movls	r0, #1
 1885 00c6 FFF7FEFF 		bl	assert_param
 1886              	.LVL225:
 400:STM32F10x_StdPeriph_Driver/src/stm32f10x_gpio.c ****   
 401:STM32F10x_StdPeriph_Driver/src/stm32f10x_gpio.c ****   if (BitVal != Bit_RESET)
 1887              		.loc 1 401 3 discriminator 32 view .LVU475
 1888              		.loc 1 401 6 is_stmt 0 discriminator 32 view .LVU476
 1889 00ca DEB1     		cbz	r6, .L189
 402:STM32F10x_StdPeriph_Driver/src/stm32f10x_gpio.c ****   {
 403:STM32F10x_StdPeriph_Driver/src/stm32f10x_gpio.c ****     GPIOx->BSRR = GPIO_Pin;
 1890              		.loc 1 403 5 is_stmt 1 view .LVU477
 1891              		.loc 1 403 17 is_stmt 0 view .LVU478
 1892 00cc 2561     		str	r5, [r4, #16]
 1893              	.L186:
 404:STM32F10x_StdPeriph_Driver/src/stm32f10x_gpio.c ****   }
 405:STM32F10x_StdPeriph_Driver/src/stm32f10x_gpio.c ****   else
 406:STM32F10x_StdPeriph_Driver/src/stm32f10x_gpio.c ****   {
 407:STM32F10x_StdPeriph_Driver/src/stm32f10x_gpio.c ****     GPIOx->BRR = GPIO_Pin;
 408:STM32F10x_StdPeriph_Driver/src/stm32f10x_gpio.c ****   }
 409:STM32F10x_StdPeriph_Driver/src/stm32f10x_gpio.c **** }
 1894              		.loc 1 409 1 view .LVU479
 1895 00ce 70BD     		pop	{r4, r5, r6, pc}
 1896              	.LVL226:
ARM GAS  C:\Users\Anoolv\AppData\Local\Temp\ccdSiwxa.s 			page 44


 1897              	.L199:
 398:STM32F10x_StdPeriph_Driver/src/stm32f10x_gpio.c ****   assert_param(IS_GPIO_BIT_ACTION(BitVal)); 
 1898              		.loc 1 398 3 view .LVU480
 1899 00d0 0120     		movs	r0, #1
 1900 00d2 F2E7     		b	.L188
 1901              	.L200:
 1902 00d4 0120     		movs	r0, #1
 1903 00d6 F0E7     		b	.L188
 1904              	.L201:
 1905 00d8 0120     		movs	r0, #1
 1906 00da EEE7     		b	.L188
 1907              	.L202:
 1908 00dc 0120     		movs	r0, #1
 1909 00de ECE7     		b	.L188
 1910              	.L203:
 1911 00e0 0120     		movs	r0, #1
 1912 00e2 EAE7     		b	.L188
 1913              	.L204:
 1914 00e4 0120     		movs	r0, #1
 1915 00e6 E8E7     		b	.L188
 1916              	.L205:
 1917 00e8 0120     		movs	r0, #1
 1918 00ea E6E7     		b	.L188
 1919              	.L206:
 1920 00ec 0120     		movs	r0, #1
 1921 00ee E4E7     		b	.L188
 1922              	.L207:
 1923 00f0 0120     		movs	r0, #1
 1924 00f2 E2E7     		b	.L188
 1925              	.L208:
 1926 00f4 0120     		movs	r0, #1
 1927 00f6 E0E7     		b	.L188
 1928              	.L209:
 1929 00f8 0120     		movs	r0, #1
 1930 00fa DEE7     		b	.L188
 1931              	.L210:
 1932 00fc 0120     		movs	r0, #1
 1933 00fe DCE7     		b	.L188
 1934              	.L211:
 1935 0100 0120     		movs	r0, #1
 1936 0102 DAE7     		b	.L188
 1937              	.L189:
 407:STM32F10x_StdPeriph_Driver/src/stm32f10x_gpio.c ****   }
 1938              		.loc 1 407 5 is_stmt 1 view .LVU481
 407:STM32F10x_StdPeriph_Driver/src/stm32f10x_gpio.c ****   }
 1939              		.loc 1 407 16 is_stmt 0 view .LVU482
 1940 0104 6561     		str	r5, [r4, #20]
 1941              		.loc 1 409 1 view .LVU483
 1942 0106 E2E7     		b	.L186
 1943              	.L217:
 1944              		.align	2
 1945              	.L216:
 1946 0108 00080140 		.word	1073809408
 1947              		.cfi_endproc
 1948              	.LFE39:
 1950              		.section	.text.GPIO_Write,"ax",%progbits
 1951              		.align	1
ARM GAS  C:\Users\Anoolv\AppData\Local\Temp\ccdSiwxa.s 			page 45


 1952              		.global	GPIO_Write
 1953              		.syntax unified
 1954              		.thumb
 1955              		.thumb_func
 1956              		.fpu softvfp
 1958              	GPIO_Write:
 1959              	.LVL227:
 1960              	.LFB40:
 410:STM32F10x_StdPeriph_Driver/src/stm32f10x_gpio.c **** 
 411:STM32F10x_StdPeriph_Driver/src/stm32f10x_gpio.c **** /**
 412:STM32F10x_StdPeriph_Driver/src/stm32f10x_gpio.c ****   * @brief  Writes data to the specified GPIO data port.
 413:STM32F10x_StdPeriph_Driver/src/stm32f10x_gpio.c ****   * @param  GPIOx: where x can be (A..G) to select the GPIO peripheral.
 414:STM32F10x_StdPeriph_Driver/src/stm32f10x_gpio.c ****   * @param  PortVal: specifies the value to be written to the port output data register.
 415:STM32F10x_StdPeriph_Driver/src/stm32f10x_gpio.c ****   * @retval None
 416:STM32F10x_StdPeriph_Driver/src/stm32f10x_gpio.c ****   */
 417:STM32F10x_StdPeriph_Driver/src/stm32f10x_gpio.c **** void GPIO_Write(GPIO_TypeDef* GPIOx, uint16_t PortVal)
 418:STM32F10x_StdPeriph_Driver/src/stm32f10x_gpio.c **** {
 1961              		.loc 1 418 1 is_stmt 1 view -0
 1962              		.cfi_startproc
 1963              		@ args = 0, pretend = 0, frame = 0
 1964              		@ frame_needed = 0, uses_anonymous_args = 0
 1965              		.loc 1 418 1 is_stmt 0 view .LVU485
 1966 0000 38B5     		push	{r3, r4, r5, lr}
 1967              	.LCFI10:
 1968              		.cfi_def_cfa_offset 16
 1969              		.cfi_offset 3, -16
 1970              		.cfi_offset 4, -12
 1971              		.cfi_offset 5, -8
 1972              		.cfi_offset 14, -4
 1973 0002 0446     		mov	r4, r0
 1974 0004 0D46     		mov	r5, r1
 419:STM32F10x_StdPeriph_Driver/src/stm32f10x_gpio.c ****   /* Check the parameters */
 420:STM32F10x_StdPeriph_Driver/src/stm32f10x_gpio.c ****   assert_param(IS_GPIO_ALL_PERIPH(GPIOx));
 1975              		.loc 1 420 3 is_stmt 1 view .LVU486
 1976 0006 174B     		ldr	r3, .L229
 1977 0008 9842     		cmp	r0, r3
 1978 000a 1BD0     		beq	.L220
 1979              		.loc 1 420 16 is_stmt 0 discriminator 2 view .LVU487
 1980 000c 03F58063 		add	r3, r3, #1024
 1981 0010 9842     		cmp	r0, r3
 1982 0012 1CD0     		beq	.L221
 1983              		.loc 1 420 16 discriminator 4 view .LVU488
 1984 0014 03F58063 		add	r3, r3, #1024
 1985 0018 9842     		cmp	r0, r3
 1986 001a 1AD0     		beq	.L222
 1987              		.loc 1 420 16 discriminator 6 view .LVU489
 1988 001c 03F58063 		add	r3, r3, #1024
 1989 0020 9842     		cmp	r0, r3
 1990 0022 18D0     		beq	.L223
 1991              		.loc 1 420 16 discriminator 8 view .LVU490
 1992 0024 03F58063 		add	r3, r3, #1024
 1993 0028 9842     		cmp	r0, r3
 1994 002a 16D0     		beq	.L224
 1995              		.loc 1 420 16 discriminator 10 view .LVU491
 1996 002c 03F58063 		add	r3, r3, #1024
 1997 0030 9842     		cmp	r0, r3
 1998 0032 14D0     		beq	.L225
ARM GAS  C:\Users\Anoolv\AppData\Local\Temp\ccdSiwxa.s 			page 46


 1999              		.loc 1 420 3 discriminator 12 view .LVU492
 2000 0034 03F58063 		add	r3, r3, #1024
 2001 0038 9842     		cmp	r0, r3
 2002 003a 01D0     		beq	.L228
 2003              		.loc 1 420 3 view .LVU493
 2004 003c 0020     		movs	r0, #0
 2005              	.LVL228:
 2006              		.loc 1 420 3 view .LVU494
 2007 003e 02E0     		b	.L219
 2008              	.LVL229:
 2009              	.L228:
 2010              		.loc 1 420 3 view .LVU495
 2011 0040 0120     		movs	r0, #1
 2012              	.LVL230:
 2013              		.loc 1 420 3 view .LVU496
 2014 0042 00E0     		b	.L219
 2015              	.LVL231:
 2016              	.L220:
 2017              		.loc 1 420 3 view .LVU497
 2018 0044 0120     		movs	r0, #1
 2019              	.LVL232:
 2020              	.L219:
 2021              		.loc 1 420 3 discriminator 16 view .LVU498
 2022 0046 FFF7FEFF 		bl	assert_param
 2023              	.LVL233:
 421:STM32F10x_StdPeriph_Driver/src/stm32f10x_gpio.c ****   
 422:STM32F10x_StdPeriph_Driver/src/stm32f10x_gpio.c ****   GPIOx->ODR = PortVal;
 2024              		.loc 1 422 3 is_stmt 1 discriminator 16 view .LVU499
 2025              		.loc 1 422 14 is_stmt 0 discriminator 16 view .LVU500
 2026 004a E560     		str	r5, [r4, #12]
 423:STM32F10x_StdPeriph_Driver/src/stm32f10x_gpio.c **** }
 2027              		.loc 1 423 1 discriminator 16 view .LVU501
 2028 004c 38BD     		pop	{r3, r4, r5, pc}
 2029              	.LVL234:
 2030              	.L221:
 420:STM32F10x_StdPeriph_Driver/src/stm32f10x_gpio.c ****   
 2031              		.loc 1 420 3 view .LVU502
 2032 004e 0120     		movs	r0, #1
 2033              	.LVL235:
 420:STM32F10x_StdPeriph_Driver/src/stm32f10x_gpio.c ****   
 2034              		.loc 1 420 3 view .LVU503
 2035 0050 F9E7     		b	.L219
 2036              	.LVL236:
 2037              	.L222:
 420:STM32F10x_StdPeriph_Driver/src/stm32f10x_gpio.c ****   
 2038              		.loc 1 420 3 view .LVU504
 2039 0052 0120     		movs	r0, #1
 2040              	.LVL237:
 420:STM32F10x_StdPeriph_Driver/src/stm32f10x_gpio.c ****   
 2041              		.loc 1 420 3 view .LVU505
 2042 0054 F7E7     		b	.L219
 2043              	.LVL238:
 2044              	.L223:
 420:STM32F10x_StdPeriph_Driver/src/stm32f10x_gpio.c ****   
 2045              		.loc 1 420 3 view .LVU506
 2046 0056 0120     		movs	r0, #1
 2047              	.LVL239:
ARM GAS  C:\Users\Anoolv\AppData\Local\Temp\ccdSiwxa.s 			page 47


 420:STM32F10x_StdPeriph_Driver/src/stm32f10x_gpio.c ****   
 2048              		.loc 1 420 3 view .LVU507
 2049 0058 F5E7     		b	.L219
 2050              	.LVL240:
 2051              	.L224:
 420:STM32F10x_StdPeriph_Driver/src/stm32f10x_gpio.c ****   
 2052              		.loc 1 420 3 view .LVU508
 2053 005a 0120     		movs	r0, #1
 2054              	.LVL241:
 420:STM32F10x_StdPeriph_Driver/src/stm32f10x_gpio.c ****   
 2055              		.loc 1 420 3 view .LVU509
 2056 005c F3E7     		b	.L219
 2057              	.LVL242:
 2058              	.L225:
 420:STM32F10x_StdPeriph_Driver/src/stm32f10x_gpio.c ****   
 2059              		.loc 1 420 3 view .LVU510
 2060 005e 0120     		movs	r0, #1
 2061              	.LVL243:
 420:STM32F10x_StdPeriph_Driver/src/stm32f10x_gpio.c ****   
 2062              		.loc 1 420 3 view .LVU511
 2063 0060 F1E7     		b	.L219
 2064              	.L230:
 2065 0062 00BF     		.align	2
 2066              	.L229:
 2067 0064 00080140 		.word	1073809408
 2068              		.cfi_endproc
 2069              	.LFE40:
 2071              		.section	.text.GPIO_PinLockConfig,"ax",%progbits
 2072              		.align	1
 2073              		.global	GPIO_PinLockConfig
 2074              		.syntax unified
 2075              		.thumb
 2076              		.thumb_func
 2077              		.fpu softvfp
 2079              	GPIO_PinLockConfig:
 2080              	.LVL244:
 2081              	.LFB41:
 424:STM32F10x_StdPeriph_Driver/src/stm32f10x_gpio.c **** 
 425:STM32F10x_StdPeriph_Driver/src/stm32f10x_gpio.c **** /**
 426:STM32F10x_StdPeriph_Driver/src/stm32f10x_gpio.c ****   * @brief  Locks GPIO Pins configuration registers.
 427:STM32F10x_StdPeriph_Driver/src/stm32f10x_gpio.c ****   * @param  GPIOx: where x can be (A..G) to select the GPIO peripheral.
 428:STM32F10x_StdPeriph_Driver/src/stm32f10x_gpio.c ****   * @param  GPIO_Pin: specifies the port bit to be written.
 429:STM32F10x_StdPeriph_Driver/src/stm32f10x_gpio.c ****   *   This parameter can be any combination of GPIO_Pin_x where x can be (0..15).
 430:STM32F10x_StdPeriph_Driver/src/stm32f10x_gpio.c ****   * @retval None
 431:STM32F10x_StdPeriph_Driver/src/stm32f10x_gpio.c ****   */
 432:STM32F10x_StdPeriph_Driver/src/stm32f10x_gpio.c **** void GPIO_PinLockConfig(GPIO_TypeDef* GPIOx, uint16_t GPIO_Pin)
 433:STM32F10x_StdPeriph_Driver/src/stm32f10x_gpio.c **** {
 2082              		.loc 1 433 1 is_stmt 1 view -0
 2083              		.cfi_startproc
 2084              		@ args = 0, pretend = 0, frame = 0
 2085              		@ frame_needed = 0, uses_anonymous_args = 0
 2086              		.loc 1 433 1 is_stmt 0 view .LVU513
 2087 0000 38B5     		push	{r3, r4, r5, lr}
 2088              	.LCFI11:
 2089              		.cfi_def_cfa_offset 16
 2090              		.cfi_offset 3, -16
 2091              		.cfi_offset 4, -12
ARM GAS  C:\Users\Anoolv\AppData\Local\Temp\ccdSiwxa.s 			page 48


 2092              		.cfi_offset 5, -8
 2093              		.cfi_offset 14, -4
 2094 0002 0446     		mov	r4, r0
 2095 0004 0D46     		mov	r5, r1
 434:STM32F10x_StdPeriph_Driver/src/stm32f10x_gpio.c ****   uint32_t tmp = 0x00010000;
 2096              		.loc 1 434 3 is_stmt 1 view .LVU514
 2097              	.LVL245:
 435:STM32F10x_StdPeriph_Driver/src/stm32f10x_gpio.c ****   
 436:STM32F10x_StdPeriph_Driver/src/stm32f10x_gpio.c ****   /* Check the parameters */
 437:STM32F10x_StdPeriph_Driver/src/stm32f10x_gpio.c ****   assert_param(IS_GPIO_ALL_PERIPH(GPIOx));
 2098              		.loc 1 437 3 view .LVU515
 2099 0006 1C4B     		ldr	r3, .L242
 2100 0008 9842     		cmp	r0, r3
 2101 000a 1BD0     		beq	.L233
 2102              		.loc 1 437 16 is_stmt 0 discriminator 2 view .LVU516
 2103 000c 03F58063 		add	r3, r3, #1024
 2104 0010 9842     		cmp	r0, r3
 2105 0012 27D0     		beq	.L234
 2106              		.loc 1 437 16 discriminator 4 view .LVU517
 2107 0014 03F58063 		add	r3, r3, #1024
 2108 0018 9842     		cmp	r0, r3
 2109 001a 25D0     		beq	.L235
 2110              		.loc 1 437 16 discriminator 6 view .LVU518
 2111 001c 03F58063 		add	r3, r3, #1024
 2112 0020 9842     		cmp	r0, r3
 2113 0022 23D0     		beq	.L236
 2114              		.loc 1 437 16 discriminator 8 view .LVU519
 2115 0024 03F58063 		add	r3, r3, #1024
 2116 0028 9842     		cmp	r0, r3
 2117 002a 21D0     		beq	.L237
 2118              		.loc 1 437 16 discriminator 10 view .LVU520
 2119 002c 03F58063 		add	r3, r3, #1024
 2120 0030 9842     		cmp	r0, r3
 2121 0032 1FD0     		beq	.L238
 2122              		.loc 1 437 3 discriminator 12 view .LVU521
 2123 0034 03F58063 		add	r3, r3, #1024
 2124 0038 9842     		cmp	r0, r3
 2125 003a 01D0     		beq	.L241
 2126              		.loc 1 437 3 view .LVU522
 2127 003c 0020     		movs	r0, #0
 2128              	.LVL246:
 2129              		.loc 1 437 3 view .LVU523
 2130 003e 02E0     		b	.L232
 2131              	.LVL247:
 2132              	.L241:
 2133              		.loc 1 437 3 view .LVU524
 2134 0040 0120     		movs	r0, #1
 2135              	.LVL248:
 2136              		.loc 1 437 3 view .LVU525
 2137 0042 00E0     		b	.L232
 2138              	.LVL249:
 2139              	.L233:
 2140              		.loc 1 437 3 view .LVU526
 2141 0044 0120     		movs	r0, #1
 2142              	.LVL250:
 2143              	.L232:
 2144              		.loc 1 437 3 discriminator 16 view .LVU527
ARM GAS  C:\Users\Anoolv\AppData\Local\Temp\ccdSiwxa.s 			page 49


 2145 0046 FFF7FEFF 		bl	assert_param
 2146              	.LVL251:
 438:STM32F10x_StdPeriph_Driver/src/stm32f10x_gpio.c ****   assert_param(IS_GPIO_PIN(GPIO_Pin));
 2147              		.loc 1 438 3 is_stmt 1 discriminator 16 view .LVU528
 2148 004a 281E     		subs	r0, r5, #0
 2149 004c 18BF     		it	ne
 2150 004e 0120     		movne	r0, #1
 2151 0050 FFF7FEFF 		bl	assert_param
 2152              	.LVL252:
 439:STM32F10x_StdPeriph_Driver/src/stm32f10x_gpio.c ****   
 440:STM32F10x_StdPeriph_Driver/src/stm32f10x_gpio.c ****   tmp |= GPIO_Pin;
 2153              		.loc 1 440 3 discriminator 16 view .LVU529
 2154              		.loc 1 440 7 is_stmt 0 discriminator 16 view .LVU530
 2155 0054 45F48033 		orr	r3, r5, #65536
 2156              	.LVL253:
 441:STM32F10x_StdPeriph_Driver/src/stm32f10x_gpio.c ****   /* Set LCKK bit */
 442:STM32F10x_StdPeriph_Driver/src/stm32f10x_gpio.c ****   GPIOx->LCKR = tmp;
 2157              		.loc 1 442 3 is_stmt 1 discriminator 16 view .LVU531
 2158              		.loc 1 442 15 is_stmt 0 discriminator 16 view .LVU532
 2159 0058 A361     		str	r3, [r4, #24]
 443:STM32F10x_StdPeriph_Driver/src/stm32f10x_gpio.c ****   /* Reset LCKK bit */
 444:STM32F10x_StdPeriph_Driver/src/stm32f10x_gpio.c ****   GPIOx->LCKR =  GPIO_Pin;
 2160              		.loc 1 444 3 is_stmt 1 discriminator 16 view .LVU533
 2161              		.loc 1 444 15 is_stmt 0 discriminator 16 view .LVU534
 2162 005a A561     		str	r5, [r4, #24]
 445:STM32F10x_StdPeriph_Driver/src/stm32f10x_gpio.c ****   /* Set LCKK bit */
 446:STM32F10x_StdPeriph_Driver/src/stm32f10x_gpio.c ****   GPIOx->LCKR = tmp;
 2163              		.loc 1 446 3 is_stmt 1 discriminator 16 view .LVU535
 2164              		.loc 1 446 15 is_stmt 0 discriminator 16 view .LVU536
 2165 005c A361     		str	r3, [r4, #24]
 447:STM32F10x_StdPeriph_Driver/src/stm32f10x_gpio.c ****   /* Read LCKK bit*/
 448:STM32F10x_StdPeriph_Driver/src/stm32f10x_gpio.c ****   tmp = GPIOx->LCKR;
 2166              		.loc 1 448 3 is_stmt 1 discriminator 16 view .LVU537
 2167              		.loc 1 448 7 is_stmt 0 discriminator 16 view .LVU538
 2168 005e A369     		ldr	r3, [r4, #24]
 2169              	.LVL254:
 449:STM32F10x_StdPeriph_Driver/src/stm32f10x_gpio.c ****   /* Read LCKK bit*/
 450:STM32F10x_StdPeriph_Driver/src/stm32f10x_gpio.c ****   tmp = GPIOx->LCKR;
 2170              		.loc 1 450 3 is_stmt 1 discriminator 16 view .LVU539
 2171              		.loc 1 450 7 is_stmt 0 discriminator 16 view .LVU540
 2172 0060 A369     		ldr	r3, [r4, #24]
 451:STM32F10x_StdPeriph_Driver/src/stm32f10x_gpio.c **** }
 2173              		.loc 1 451 1 discriminator 16 view .LVU541
 2174 0062 38BD     		pop	{r3, r4, r5, pc}
 2175              	.LVL255:
 2176              	.L234:
 437:STM32F10x_StdPeriph_Driver/src/stm32f10x_gpio.c ****   assert_param(IS_GPIO_PIN(GPIO_Pin));
 2177              		.loc 1 437 3 view .LVU542
 2178 0064 0120     		movs	r0, #1
 2179              	.LVL256:
 437:STM32F10x_StdPeriph_Driver/src/stm32f10x_gpio.c ****   assert_param(IS_GPIO_PIN(GPIO_Pin));
 2180              		.loc 1 437 3 view .LVU543
 2181 0066 EEE7     		b	.L232
 2182              	.LVL257:
 2183              	.L235:
 437:STM32F10x_StdPeriph_Driver/src/stm32f10x_gpio.c ****   assert_param(IS_GPIO_PIN(GPIO_Pin));
 2184              		.loc 1 437 3 view .LVU544
ARM GAS  C:\Users\Anoolv\AppData\Local\Temp\ccdSiwxa.s 			page 50


 2185 0068 0120     		movs	r0, #1
 2186              	.LVL258:
 437:STM32F10x_StdPeriph_Driver/src/stm32f10x_gpio.c ****   assert_param(IS_GPIO_PIN(GPIO_Pin));
 2187              		.loc 1 437 3 view .LVU545
 2188 006a ECE7     		b	.L232
 2189              	.LVL259:
 2190              	.L236:
 437:STM32F10x_StdPeriph_Driver/src/stm32f10x_gpio.c ****   assert_param(IS_GPIO_PIN(GPIO_Pin));
 2191              		.loc 1 437 3 view .LVU546
 2192 006c 0120     		movs	r0, #1
 2193              	.LVL260:
 437:STM32F10x_StdPeriph_Driver/src/stm32f10x_gpio.c ****   assert_param(IS_GPIO_PIN(GPIO_Pin));
 2194              		.loc 1 437 3 view .LVU547
 2195 006e EAE7     		b	.L232
 2196              	.LVL261:
 2197              	.L237:
 437:STM32F10x_StdPeriph_Driver/src/stm32f10x_gpio.c ****   assert_param(IS_GPIO_PIN(GPIO_Pin));
 2198              		.loc 1 437 3 view .LVU548
 2199 0070 0120     		movs	r0, #1
 2200              	.LVL262:
 437:STM32F10x_StdPeriph_Driver/src/stm32f10x_gpio.c ****   assert_param(IS_GPIO_PIN(GPIO_Pin));
 2201              		.loc 1 437 3 view .LVU549
 2202 0072 E8E7     		b	.L232
 2203              	.LVL263:
 2204              	.L238:
 437:STM32F10x_StdPeriph_Driver/src/stm32f10x_gpio.c ****   assert_param(IS_GPIO_PIN(GPIO_Pin));
 2205              		.loc 1 437 3 view .LVU550
 2206 0074 0120     		movs	r0, #1
 2207              	.LVL264:
 437:STM32F10x_StdPeriph_Driver/src/stm32f10x_gpio.c ****   assert_param(IS_GPIO_PIN(GPIO_Pin));
 2208              		.loc 1 437 3 view .LVU551
 2209 0076 E6E7     		b	.L232
 2210              	.L243:
 2211              		.align	2
 2212              	.L242:
 2213 0078 00080140 		.word	1073809408
 2214              		.cfi_endproc
 2215              	.LFE41:
 2217              		.section	.text.GPIO_EventOutputConfig,"ax",%progbits
 2218              		.align	1
 2219              		.global	GPIO_EventOutputConfig
 2220              		.syntax unified
 2221              		.thumb
 2222              		.thumb_func
 2223              		.fpu softvfp
 2225              	GPIO_EventOutputConfig:
 2226              	.LVL265:
 2227              	.LFB42:
 452:STM32F10x_StdPeriph_Driver/src/stm32f10x_gpio.c **** 
 453:STM32F10x_StdPeriph_Driver/src/stm32f10x_gpio.c **** /**
 454:STM32F10x_StdPeriph_Driver/src/stm32f10x_gpio.c ****   * @brief  Selects the GPIO pin used as Event output.
 455:STM32F10x_StdPeriph_Driver/src/stm32f10x_gpio.c ****   * @param  GPIO_PortSource: selects the GPIO port to be used as source
 456:STM32F10x_StdPeriph_Driver/src/stm32f10x_gpio.c ****   *   for Event output.
 457:STM32F10x_StdPeriph_Driver/src/stm32f10x_gpio.c ****   *   This parameter can be GPIO_PortSourceGPIOx where x can be (A..E).
 458:STM32F10x_StdPeriph_Driver/src/stm32f10x_gpio.c ****   * @param  GPIO_PinSource: specifies the pin for the Event output.
 459:STM32F10x_StdPeriph_Driver/src/stm32f10x_gpio.c ****   *   This parameter can be GPIO_PinSourcex where x can be (0..15).
 460:STM32F10x_StdPeriph_Driver/src/stm32f10x_gpio.c ****   * @retval None
ARM GAS  C:\Users\Anoolv\AppData\Local\Temp\ccdSiwxa.s 			page 51


 461:STM32F10x_StdPeriph_Driver/src/stm32f10x_gpio.c ****   */
 462:STM32F10x_StdPeriph_Driver/src/stm32f10x_gpio.c **** void GPIO_EventOutputConfig(uint8_t GPIO_PortSource, uint8_t GPIO_PinSource)
 463:STM32F10x_StdPeriph_Driver/src/stm32f10x_gpio.c **** {
 2228              		.loc 1 463 1 is_stmt 1 view -0
 2229              		.cfi_startproc
 2230              		@ args = 0, pretend = 0, frame = 0
 2231              		@ frame_needed = 0, uses_anonymous_args = 0
 2232              		.loc 1 463 1 is_stmt 0 view .LVU553
 2233 0000 38B5     		push	{r3, r4, r5, lr}
 2234              	.LCFI12:
 2235              		.cfi_def_cfa_offset 16
 2236              		.cfi_offset 3, -16
 2237              		.cfi_offset 4, -12
 2238              		.cfi_offset 5, -8
 2239              		.cfi_offset 14, -4
 2240 0002 0546     		mov	r5, r0
 2241 0004 0C46     		mov	r4, r1
 464:STM32F10x_StdPeriph_Driver/src/stm32f10x_gpio.c ****   uint32_t tmpreg = 0x00;
 2242              		.loc 1 464 3 is_stmt 1 view .LVU554
 2243              	.LVL266:
 465:STM32F10x_StdPeriph_Driver/src/stm32f10x_gpio.c ****   /* Check the parameters */
 466:STM32F10x_StdPeriph_Driver/src/stm32f10x_gpio.c ****   assert_param(IS_GPIO_EVENTOUT_PORT_SOURCE(GPIO_PortSource));
 2244              		.loc 1 466 3 view .LVU555
 2245 0006 0428     		cmp	r0, #4
 2246 0008 8CBF     		ite	hi
 2247 000a 0020     		movhi	r0, #0
 2248              	.LVL267:
 2249              		.loc 1 466 3 is_stmt 0 view .LVU556
 2250 000c 0120     		movls	r0, #1
 2251 000e FFF7FEFF 		bl	assert_param
 2252              	.LVL268:
 467:STM32F10x_StdPeriph_Driver/src/stm32f10x_gpio.c ****   assert_param(IS_GPIO_PIN_SOURCE(GPIO_PinSource));
 2253              		.loc 1 467 3 is_stmt 1 view .LVU557
 2254 0012 0F2C     		cmp	r4, #15
 2255 0014 8CBF     		ite	hi
 2256 0016 0020     		movhi	r0, #0
 2257 0018 0120     		movls	r0, #1
 2258 001a FFF7FEFF 		bl	assert_param
 2259              	.LVL269:
 468:STM32F10x_StdPeriph_Driver/src/stm32f10x_gpio.c ****     
 469:STM32F10x_StdPeriph_Driver/src/stm32f10x_gpio.c ****   tmpreg = AFIO->EVCR;
 2260              		.loc 1 469 3 view .LVU558
 2261              		.loc 1 469 10 is_stmt 0 view .LVU559
 2262 001e 054B     		ldr	r3, .L246
 2263 0020 1968     		ldr	r1, [r3]
 2264              	.LVL270:
 470:STM32F10x_StdPeriph_Driver/src/stm32f10x_gpio.c ****   /* Clear the PORT[6:4] and PIN[3:0] bits */
 471:STM32F10x_StdPeriph_Driver/src/stm32f10x_gpio.c ****   tmpreg &= EVCR_PORTPINCONFIG_MASK;
 2265              		.loc 1 471 3 is_stmt 1 view .LVU560
 2266              		.loc 1 471 10 is_stmt 0 view .LVU561
 2267 0022 21F07F01 		bic	r1, r1, #127
 2268              	.LVL271:
 2269              		.loc 1 471 10 view .LVU562
 2270 0026 0904     		lsls	r1, r1, #16
 2271 0028 090C     		lsrs	r1, r1, #16
 2272              	.LVL272:
 472:STM32F10x_StdPeriph_Driver/src/stm32f10x_gpio.c ****   tmpreg |= (uint32_t)GPIO_PortSource << 0x04;
ARM GAS  C:\Users\Anoolv\AppData\Local\Temp\ccdSiwxa.s 			page 52


 2273              		.loc 1 472 3 is_stmt 1 view .LVU563
 2274              		.loc 1 472 10 is_stmt 0 view .LVU564
 2275 002a 41EA0511 		orr	r1, r1, r5, lsl #4
 2276              	.LVL273:
 473:STM32F10x_StdPeriph_Driver/src/stm32f10x_gpio.c ****   tmpreg |= GPIO_PinSource;
 2277              		.loc 1 473 3 is_stmt 1 view .LVU565
 2278              		.loc 1 473 10 is_stmt 0 view .LVU566
 2279 002e 0C43     		orrs	r4, r4, r1
 2280              	.LVL274:
 474:STM32F10x_StdPeriph_Driver/src/stm32f10x_gpio.c ****   AFIO->EVCR = tmpreg;
 2281              		.loc 1 474 3 is_stmt 1 view .LVU567
 2282              		.loc 1 474 14 is_stmt 0 view .LVU568
 2283 0030 1C60     		str	r4, [r3]
 475:STM32F10x_StdPeriph_Driver/src/stm32f10x_gpio.c **** }
 2284              		.loc 1 475 1 view .LVU569
 2285 0032 38BD     		pop	{r3, r4, r5, pc}
 2286              	.LVL275:
 2287              	.L247:
 2288              		.loc 1 475 1 view .LVU570
 2289              		.align	2
 2290              	.L246:
 2291 0034 00000140 		.word	1073807360
 2292              		.cfi_endproc
 2293              	.LFE42:
 2295              		.section	.text.GPIO_EventOutputCmd,"ax",%progbits
 2296              		.align	1
 2297              		.global	GPIO_EventOutputCmd
 2298              		.syntax unified
 2299              		.thumb
 2300              		.thumb_func
 2301              		.fpu softvfp
 2303              	GPIO_EventOutputCmd:
 2304              	.LVL276:
 2305              	.LFB43:
 476:STM32F10x_StdPeriph_Driver/src/stm32f10x_gpio.c **** 
 477:STM32F10x_StdPeriph_Driver/src/stm32f10x_gpio.c **** /**
 478:STM32F10x_StdPeriph_Driver/src/stm32f10x_gpio.c ****   * @brief  Enables or disables the Event Output.
 479:STM32F10x_StdPeriph_Driver/src/stm32f10x_gpio.c ****   * @param  NewState: new state of the Event output.
 480:STM32F10x_StdPeriph_Driver/src/stm32f10x_gpio.c ****   *   This parameter can be: ENABLE or DISABLE.
 481:STM32F10x_StdPeriph_Driver/src/stm32f10x_gpio.c ****   * @retval None
 482:STM32F10x_StdPeriph_Driver/src/stm32f10x_gpio.c ****   */
 483:STM32F10x_StdPeriph_Driver/src/stm32f10x_gpio.c **** void GPIO_EventOutputCmd(FunctionalState NewState)
 484:STM32F10x_StdPeriph_Driver/src/stm32f10x_gpio.c **** {
 2306              		.loc 1 484 1 is_stmt 1 view -0
 2307              		.cfi_startproc
 2308              		@ args = 0, pretend = 0, frame = 0
 2309              		@ frame_needed = 0, uses_anonymous_args = 0
 2310              		.loc 1 484 1 is_stmt 0 view .LVU572
 2311 0000 10B5     		push	{r4, lr}
 2312              	.LCFI13:
 2313              		.cfi_def_cfa_offset 8
 2314              		.cfi_offset 4, -8
 2315              		.cfi_offset 14, -4
 2316 0002 0446     		mov	r4, r0
 485:STM32F10x_StdPeriph_Driver/src/stm32f10x_gpio.c ****   /* Check the parameters */
 486:STM32F10x_StdPeriph_Driver/src/stm32f10x_gpio.c ****   assert_param(IS_FUNCTIONAL_STATE(NewState));
 2317              		.loc 1 486 3 is_stmt 1 view .LVU573
ARM GAS  C:\Users\Anoolv\AppData\Local\Temp\ccdSiwxa.s 			page 53


 2318 0004 0128     		cmp	r0, #1
 2319 0006 8CBF     		ite	hi
 2320 0008 0020     		movhi	r0, #0
 2321              	.LVL277:
 2322              		.loc 1 486 3 is_stmt 0 view .LVU574
 2323 000a 0120     		movls	r0, #1
 2324 000c FFF7FEFF 		bl	assert_param
 2325              	.LVL278:
 487:STM32F10x_StdPeriph_Driver/src/stm32f10x_gpio.c ****   
 488:STM32F10x_StdPeriph_Driver/src/stm32f10x_gpio.c ****   *(__IO uint32_t *) EVCR_EVOE_BB = (uint32_t)NewState;
 2326              		.loc 1 488 3 is_stmt 1 view .LVU575
 2327              		.loc 1 488 35 is_stmt 0 view .LVU576
 2328 0010 014B     		ldr	r3, .L250
 2329 0012 DC61     		str	r4, [r3, #28]
 489:STM32F10x_StdPeriph_Driver/src/stm32f10x_gpio.c **** }
 2330              		.loc 1 489 1 view .LVU577
 2331 0014 10BD     		pop	{r4, pc}
 2332              	.L251:
 2333 0016 00BF     		.align	2
 2334              	.L250:
 2335 0018 00002042 		.word	1109393408
 2336              		.cfi_endproc
 2337              	.LFE43:
 2339              		.section	.text.GPIO_PinRemapConfig,"ax",%progbits
 2340              		.align	1
 2341              		.global	GPIO_PinRemapConfig
 2342              		.syntax unified
 2343              		.thumb
 2344              		.thumb_func
 2345              		.fpu softvfp
 2347              	GPIO_PinRemapConfig:
 2348              	.LVL279:
 2349              	.LFB44:
 490:STM32F10x_StdPeriph_Driver/src/stm32f10x_gpio.c **** 
 491:STM32F10x_StdPeriph_Driver/src/stm32f10x_gpio.c **** /**
 492:STM32F10x_StdPeriph_Driver/src/stm32f10x_gpio.c ****   * @brief  Changes the mapping of the specified pin.
 493:STM32F10x_StdPeriph_Driver/src/stm32f10x_gpio.c ****   * @param  GPIO_Remap: selects the pin to remap.
 494:STM32F10x_StdPeriph_Driver/src/stm32f10x_gpio.c ****   *   This parameter can be one of the following values:
 495:STM32F10x_StdPeriph_Driver/src/stm32f10x_gpio.c ****   *     @arg GPIO_Remap_SPI1             : SPI1 Alternate Function mapping
 496:STM32F10x_StdPeriph_Driver/src/stm32f10x_gpio.c ****   *     @arg GPIO_Remap_I2C1             : I2C1 Alternate Function mapping
 497:STM32F10x_StdPeriph_Driver/src/stm32f10x_gpio.c ****   *     @arg GPIO_Remap_USART1           : USART1 Alternate Function mapping
 498:STM32F10x_StdPeriph_Driver/src/stm32f10x_gpio.c ****   *     @arg GPIO_Remap_USART2           : USART2 Alternate Function mapping
 499:STM32F10x_StdPeriph_Driver/src/stm32f10x_gpio.c ****   *     @arg GPIO_PartialRemap_USART3    : USART3 Partial Alternate Function mapping
 500:STM32F10x_StdPeriph_Driver/src/stm32f10x_gpio.c ****   *     @arg GPIO_FullRemap_USART3       : USART3 Full Alternate Function mapping
 501:STM32F10x_StdPeriph_Driver/src/stm32f10x_gpio.c ****   *     @arg GPIO_PartialRemap_TIM1      : TIM1 Partial Alternate Function mapping
 502:STM32F10x_StdPeriph_Driver/src/stm32f10x_gpio.c ****   *     @arg GPIO_FullRemap_TIM1         : TIM1 Full Alternate Function mapping
 503:STM32F10x_StdPeriph_Driver/src/stm32f10x_gpio.c ****   *     @arg GPIO_PartialRemap1_TIM2     : TIM2 Partial1 Alternate Function mapping
 504:STM32F10x_StdPeriph_Driver/src/stm32f10x_gpio.c ****   *     @arg GPIO_PartialRemap2_TIM2     : TIM2 Partial2 Alternate Function mapping
 505:STM32F10x_StdPeriph_Driver/src/stm32f10x_gpio.c ****   *     @arg GPIO_FullRemap_TIM2         : TIM2 Full Alternate Function mapping
 506:STM32F10x_StdPeriph_Driver/src/stm32f10x_gpio.c ****   *     @arg GPIO_PartialRemap_TIM3      : TIM3 Partial Alternate Function mapping
 507:STM32F10x_StdPeriph_Driver/src/stm32f10x_gpio.c ****   *     @arg GPIO_FullRemap_TIM3         : TIM3 Full Alternate Function mapping
 508:STM32F10x_StdPeriph_Driver/src/stm32f10x_gpio.c ****   *     @arg GPIO_Remap_TIM4             : TIM4 Alternate Function mapping
 509:STM32F10x_StdPeriph_Driver/src/stm32f10x_gpio.c ****   *     @arg GPIO_Remap1_CAN1            : CAN1 Alternate Function mapping
 510:STM32F10x_StdPeriph_Driver/src/stm32f10x_gpio.c ****   *     @arg GPIO_Remap2_CAN1            : CAN1 Alternate Function mapping
 511:STM32F10x_StdPeriph_Driver/src/stm32f10x_gpio.c ****   *     @arg GPIO_Remap_PD01             : PD01 Alternate Function mapping
 512:STM32F10x_StdPeriph_Driver/src/stm32f10x_gpio.c ****   *     @arg GPIO_Remap_TIM5CH4_LSI      : LSI connected to TIM5 Channel4 input capture for calibra
 513:STM32F10x_StdPeriph_Driver/src/stm32f10x_gpio.c ****   *     @arg GPIO_Remap_ADC1_ETRGINJ     : ADC1 External Trigger Injected Conversion remapping
ARM GAS  C:\Users\Anoolv\AppData\Local\Temp\ccdSiwxa.s 			page 54


 514:STM32F10x_StdPeriph_Driver/src/stm32f10x_gpio.c ****   *     @arg GPIO_Remap_ADC1_ETRGREG     : ADC1 External Trigger Regular Conversion remapping
 515:STM32F10x_StdPeriph_Driver/src/stm32f10x_gpio.c ****   *     @arg GPIO_Remap_ADC2_ETRGINJ     : ADC2 External Trigger Injected Conversion remapping
 516:STM32F10x_StdPeriph_Driver/src/stm32f10x_gpio.c ****   *     @arg GPIO_Remap_ADC2_ETRGREG     : ADC2 External Trigger Regular Conversion remapping
 517:STM32F10x_StdPeriph_Driver/src/stm32f10x_gpio.c ****   *     @arg GPIO_Remap_ETH              : Ethernet remapping (only for Connectivity line devices)
 518:STM32F10x_StdPeriph_Driver/src/stm32f10x_gpio.c ****   *     @arg GPIO_Remap_CAN2             : CAN2 remapping (only for Connectivity line devices)
 519:STM32F10x_StdPeriph_Driver/src/stm32f10x_gpio.c ****   *     @arg GPIO_Remap_SWJ_NoJTRST      : Full SWJ Enabled (JTAG-DP + SW-DP) but without JTRST
 520:STM32F10x_StdPeriph_Driver/src/stm32f10x_gpio.c ****   *     @arg GPIO_Remap_SWJ_JTAGDisable  : JTAG-DP Disabled and SW-DP Enabled
 521:STM32F10x_StdPeriph_Driver/src/stm32f10x_gpio.c ****   *     @arg GPIO_Remap_SWJ_Disable      : Full SWJ Disabled (JTAG-DP + SW-DP)
 522:STM32F10x_StdPeriph_Driver/src/stm32f10x_gpio.c ****   *     @arg GPIO_Remap_SPI3             : SPI3/I2S3 Alternate Function mapping (only for Connectiv
 523:STM32F10x_StdPeriph_Driver/src/stm32f10x_gpio.c ****   *                                        When the SPI3/I2S3 is remapped using this function, the 
 524:STM32F10x_StdPeriph_Driver/src/stm32f10x_gpio.c ****   *                                        to Full SWJ Enabled (JTAG-DP + SW-DP) but without JTRST.
 525:STM32F10x_StdPeriph_Driver/src/stm32f10x_gpio.c ****   *     @arg GPIO_Remap_TIM2ITR1_PTP_SOF : Ethernet PTP output or USB OTG SOF (Start of Frame) conn
 526:STM32F10x_StdPeriph_Driver/src/stm32f10x_gpio.c ****   *                                        to TIM2 Internal Trigger 1 for calibration (only for Con
 527:STM32F10x_StdPeriph_Driver/src/stm32f10x_gpio.c ****   *                                        If the GPIO_Remap_TIM2ITR1_PTP_SOF is enabled the TIM2 I
 528:STM32F10x_StdPeriph_Driver/src/stm32f10x_gpio.c ****   *                                        Ethernet PTP output. When Reset TIM2 ITR1 is connected t
 529:STM32F10x_StdPeriph_Driver/src/stm32f10x_gpio.c ****   *     @arg GPIO_Remap_PTP_PPS          : Ethernet MAC PPS_PTS output on PB05 (only for Connectivi
 530:STM32F10x_StdPeriph_Driver/src/stm32f10x_gpio.c ****   *     @arg GPIO_Remap_TIM15            : TIM15 Alternate Function mapping (only for Value line de
 531:STM32F10x_StdPeriph_Driver/src/stm32f10x_gpio.c ****   *     @arg GPIO_Remap_TIM16            : TIM16 Alternate Function mapping (only for Value line de
 532:STM32F10x_StdPeriph_Driver/src/stm32f10x_gpio.c ****   *     @arg GPIO_Remap_TIM17            : TIM17 Alternate Function mapping (only for Value line de
 533:STM32F10x_StdPeriph_Driver/src/stm32f10x_gpio.c ****   *     @arg GPIO_Remap_CEC              : CEC Alternate Function mapping (only for Value line devi
 534:STM32F10x_StdPeriph_Driver/src/stm32f10x_gpio.c ****   *     @arg GPIO_Remap_TIM1_DMA         : TIM1 DMA requests mapping (only for Value line devices)
 535:STM32F10x_StdPeriph_Driver/src/stm32f10x_gpio.c ****   *     @arg GPIO_Remap_TIM9             : TIM9 Alternate Function mapping (only for XL-density dev
 536:STM32F10x_StdPeriph_Driver/src/stm32f10x_gpio.c ****   *     @arg GPIO_Remap_TIM10            : TIM10 Alternate Function mapping (only for XL-density de
 537:STM32F10x_StdPeriph_Driver/src/stm32f10x_gpio.c ****   *     @arg GPIO_Remap_TIM11            : TIM11 Alternate Function mapping (only for XL-density de
 538:STM32F10x_StdPeriph_Driver/src/stm32f10x_gpio.c ****   *     @arg GPIO_Remap_TIM13            : TIM13 Alternate Function mapping (only for High density 
 539:STM32F10x_StdPeriph_Driver/src/stm32f10x_gpio.c ****   *     @arg GPIO_Remap_TIM14            : TIM14 Alternate Function mapping (only for High density 
 540:STM32F10x_StdPeriph_Driver/src/stm32f10x_gpio.c ****   *     @arg GPIO_Remap_FSMC_NADV        : FSMC_NADV Alternate Function mapping (only for High dens
 541:STM32F10x_StdPeriph_Driver/src/stm32f10x_gpio.c ****   *     @arg GPIO_Remap_TIM67_DAC_DMA    : TIM6/TIM7 and DAC DMA requests remapping (only for High 
 542:STM32F10x_StdPeriph_Driver/src/stm32f10x_gpio.c ****   *     @arg GPIO_Remap_TIM12            : TIM12 Alternate Function mapping (only for High density 
 543:STM32F10x_StdPeriph_Driver/src/stm32f10x_gpio.c ****   *     @arg GPIO_Remap_MISC             : Miscellaneous Remap (DMA2 Channel5 Position and DAC Trig
 544:STM32F10x_StdPeriph_Driver/src/stm32f10x_gpio.c ****   *                                        only for High density Value line devices)     
 545:STM32F10x_StdPeriph_Driver/src/stm32f10x_gpio.c ****   * @param  NewState: new state of the port pin remapping.
 546:STM32F10x_StdPeriph_Driver/src/stm32f10x_gpio.c ****   *   This parameter can be: ENABLE or DISABLE.
 547:STM32F10x_StdPeriph_Driver/src/stm32f10x_gpio.c ****   * @retval None
 548:STM32F10x_StdPeriph_Driver/src/stm32f10x_gpio.c ****   */
 549:STM32F10x_StdPeriph_Driver/src/stm32f10x_gpio.c **** void GPIO_PinRemapConfig(uint32_t GPIO_Remap, FunctionalState NewState)
 550:STM32F10x_StdPeriph_Driver/src/stm32f10x_gpio.c **** {
 2350              		.loc 1 550 1 is_stmt 1 view -0
 2351              		.cfi_startproc
 2352              		@ args = 0, pretend = 0, frame = 0
 2353              		@ frame_needed = 0, uses_anonymous_args = 0
 2354              		.loc 1 550 1 is_stmt 0 view .LVU579
 2355 0000 38B5     		push	{r3, r4, r5, lr}
 2356              	.LCFI14:
 2357              		.cfi_def_cfa_offset 16
 2358              		.cfi_offset 3, -16
 2359              		.cfi_offset 4, -12
 2360              		.cfi_offset 5, -8
 2361              		.cfi_offset 14, -4
 2362 0002 0446     		mov	r4, r0
 2363 0004 0D46     		mov	r5, r1
 551:STM32F10x_StdPeriph_Driver/src/stm32f10x_gpio.c ****   uint32_t tmp = 0x00, tmp1 = 0x00, tmpreg = 0x00, tmpmask = 0x00;
 2364              		.loc 1 551 3 is_stmt 1 view .LVU580
 2365              	.LVL280:
 552:STM32F10x_StdPeriph_Driver/src/stm32f10x_gpio.c **** 
 553:STM32F10x_StdPeriph_Driver/src/stm32f10x_gpio.c ****   /* Check the parameters */
 554:STM32F10x_StdPeriph_Driver/src/stm32f10x_gpio.c ****   assert_param(IS_GPIO_REMAP(GPIO_Remap));
ARM GAS  C:\Users\Anoolv\AppData\Local\Temp\ccdSiwxa.s 			page 55


 2366              		.loc 1 554 3 view .LVU581
 2367              		.loc 1 554 16 is_stmt 0 view .LVU582
 2368 0006 431E     		subs	r3, r0, #1
 2369              		.loc 1 554 3 view .LVU583
 2370 0008 012B     		cmp	r3, #1
 2371 000a 40F2AF80 		bls	.L262
 2372              		.loc 1 554 16 discriminator 2 view .LVU584
 2373 000e 0428     		cmp	r0, #4
 2374 0010 00F0CC80 		beq	.L263
 2375              		.loc 1 554 16 discriminator 4 view .LVU585
 2376 0014 0828     		cmp	r0, #8
 2377 0016 00F0CB80 		beq	.L264
 2378              		.loc 1 554 16 discriminator 6 view .LVU586
 2379 001a 9D4B     		ldr	r3, .L310
 2380 001c 9842     		cmp	r0, r3
 2381 001e 00F0C980 		beq	.L265
 2382              		.loc 1 554 16 discriminator 8 view .LVU587
 2383 0022 2033     		adds	r3, r3, #32
 2384 0024 9842     		cmp	r0, r3
 2385 0026 00F0C780 		beq	.L266
 2386              		.loc 1 554 16 discriminator 10 view .LVU588
 2387 002a 9A4B     		ldr	r3, .L310+4
 2388 002c 9842     		cmp	r0, r3
 2389 002e 00F0C580 		beq	.L267
 2390              		.loc 1 554 16 discriminator 12 view .LVU589
 2391 0032 8033     		adds	r3, r3, #128
 2392 0034 9842     		cmp	r0, r3
 2393 0036 00F0C380 		beq	.L268
 2394              		.loc 1 554 16 discriminator 14 view .LVU590
 2395 003a 974B     		ldr	r3, .L310+8
 2396 003c 9842     		cmp	r0, r3
 2397 003e 00F0C180 		beq	.L269
 2398              		.loc 1 554 16 discriminator 16 view .LVU591
 2399 0042 03F58073 		add	r3, r3, #256
 2400 0046 9842     		cmp	r0, r3
 2401 0048 00F0BE80 		beq	.L270
 2402              		.loc 1 554 16 discriminator 18 view .LVU592
 2403 004c 03F58073 		add	r3, r3, #256
 2404 0050 9842     		cmp	r0, r3
 2405 0052 00F0BB80 		beq	.L271
 2406              		.loc 1 554 16 discriminator 20 view .LVU593
 2407 0056 914B     		ldr	r3, .L310+12
 2408 0058 9842     		cmp	r0, r3
 2409 005a 00F0B980 		beq	.L272
 2410              		.loc 1 554 16 discriminator 22 view .LVU594
 2411 005e 03F58063 		add	r3, r3, #1024
 2412 0062 9842     		cmp	r0, r3
 2413 0064 00F0B680 		beq	.L273
 2414              		.loc 1 554 16 discriminator 24 view .LVU595
 2415 0068 B0F5805F 		cmp	r0, #4096
 2416 006c 00F0B480 		beq	.L274
 2417              		.loc 1 554 16 discriminator 26 view .LVU596
 2418 0070 B0F5EA1F 		cmp	r0, #1916928
 2419 0074 00F0B280 		beq	.L275
 2420              		.loc 1 554 16 discriminator 28 view .LVU597
 2421 0078 B0F5EB1F 		cmp	r0, #1925120
 2422 007c 00F0B080 		beq	.L276
ARM GAS  C:\Users\Anoolv\AppData\Local\Temp\ccdSiwxa.s 			page 56


 2423              		.loc 1 554 16 discriminator 30 view .LVU598
 2424 0080 B0F5004F 		cmp	r0, #32768
 2425 0084 00F0AE80 		beq	.L277
 2426              		.loc 1 554 16 discriminator 32 view .LVU599
 2427 0088 854B     		ldr	r3, .L310+16
 2428 008a 9842     		cmp	r0, r3
 2429 008c 00F0AC80 		beq	.L278
 2430              		.loc 1 554 16 discriminator 34 view .LVU600
 2431 0090 0133     		adds	r3, r3, #1
 2432 0092 9842     		cmp	r0, r3
 2433 0094 00F0AA80 		beq	.L279
 2434              		.loc 1 554 16 discriminator 36 view .LVU601
 2435 0098 0233     		adds	r3, r3, #2
 2436 009a 9842     		cmp	r0, r3
 2437 009c 00F0A880 		beq	.L280
 2438              		.loc 1 554 16 discriminator 38 view .LVU602
 2439 00a0 0433     		adds	r3, r3, #4
 2440 00a2 9842     		cmp	r0, r3
 2441 00a4 00F0A680 		beq	.L281
 2442              		.loc 1 554 16 discriminator 40 view .LVU603
 2443 00a8 0833     		adds	r3, r3, #8
 2444 00aa 9842     		cmp	r0, r3
 2445 00ac 00F0A480 		beq	.L282
 2446              		.loc 1 554 16 discriminator 42 view .LVU604
 2447 00b0 B0F1201F 		cmp	r0, #2097184
 2448 00b4 00F0A280 		beq	.L283
 2449              		.loc 1 554 16 discriminator 44 view .LVU605
 2450 00b8 3033     		adds	r3, r3, #48
 2451 00ba 9842     		cmp	r0, r3
 2452 00bc 00F0A080 		beq	.L284
 2453              		.loc 1 554 16 discriminator 46 view .LVU606
 2454 00c0 784B     		ldr	r3, .L310+20
 2455 00c2 9842     		cmp	r0, r3
 2456 00c4 00F09E80 		beq	.L285
 2457              		.loc 1 554 16 discriminator 48 view .LVU607
 2458 00c8 03F58073 		add	r3, r3, #256
 2459 00cc 9842     		cmp	r0, r3
 2460 00ce 00F09B80 		beq	.L286
 2461              		.loc 1 554 16 discriminator 50 view .LVU608
 2462 00d2 03F50073 		add	r3, r3, #512
 2463 00d6 9842     		cmp	r0, r3
 2464 00d8 00F09880 		beq	.L287
 2465              		.loc 1 554 16 discriminator 52 view .LVU609
 2466 00dc 724B     		ldr	r3, .L310+24
 2467 00de 9842     		cmp	r0, r3
 2468 00e0 00F09680 		beq	.L288
 2469              		.loc 1 554 16 discriminator 54 view .LVU610
 2470 00e4 03F57063 		add	r3, r3, #3840
 2471 00e8 9842     		cmp	r0, r3
 2472 00ea 00F09380 		beq	.L289
 2473              		.loc 1 554 16 discriminator 56 view .LVU611
 2474 00ee B0F5011F 		cmp	r0, #2113536
 2475 00f2 00F09180 		beq	.L290
 2476              		.loc 1 554 16 discriminator 58 view .LVU612
 2477 00f6 6D4B     		ldr	r3, .L310+28
 2478 00f8 9842     		cmp	r0, r3
 2479 00fa 00F08F80 		beq	.L291
ARM GAS  C:\Users\Anoolv\AppData\Local\Temp\ccdSiwxa.s 			page 57


 2480              		.loc 1 554 16 discriminator 60 view .LVU613
 2481 00fe 0133     		adds	r3, r3, #1
 2482 0100 9842     		cmp	r0, r3
 2483 0102 00F08D80 		beq	.L292
 2484              		.loc 1 554 16 discriminator 62 view .LVU614
 2485 0106 0233     		adds	r3, r3, #2
 2486 0108 9842     		cmp	r0, r3
 2487 010a 00F08B80 		beq	.L293
 2488              		.loc 1 554 16 discriminator 64 view .LVU615
 2489 010e 0433     		adds	r3, r3, #4
 2490 0110 9842     		cmp	r0, r3
 2491 0112 00F08980 		beq	.L294
 2492              		.loc 1 554 16 discriminator 66 view .LVU616
 2493 0116 0833     		adds	r3, r3, #8
 2494 0118 9842     		cmp	r0, r3
 2495 011a 00F08780 		beq	.L295
 2496              		.loc 1 554 16 discriminator 68 view .LVU617
 2497 011e 1033     		adds	r3, r3, #16
 2498 0120 9842     		cmp	r0, r3
 2499 0122 00F08580 		beq	.L296
 2500              		.loc 1 554 16 discriminator 70 view .LVU618
 2501 0126 2033     		adds	r3, r3, #32
 2502 0128 9842     		cmp	r0, r3
 2503 012a 00F08380 		beq	.L297
 2504              		.loc 1 554 16 discriminator 72 view .LVU619
 2505 012e 4033     		adds	r3, r3, #64
 2506 0130 9842     		cmp	r0, r3
 2507 0132 00F08180 		beq	.L298
 2508              		.loc 1 554 16 discriminator 74 view .LVU620
 2509 0136 8033     		adds	r3, r3, #128
 2510 0138 9842     		cmp	r0, r3
 2511 013a 7FD0     		beq	.L299
 2512              		.loc 1 554 16 discriminator 76 view .LVU621
 2513 013c 03F58073 		add	r3, r3, #256
 2514 0140 9842     		cmp	r0, r3
 2515 0142 7DD0     		beq	.L300
 2516              		.loc 1 554 16 discriminator 78 view .LVU622
 2517 0144 03F50073 		add	r3, r3, #512
 2518 0148 9842     		cmp	r0, r3
 2519 014a 7BD0     		beq	.L301
 2520              		.loc 1 554 16 discriminator 80 view .LVU623
 2521 014c 03F58063 		add	r3, r3, #1024
 2522 0150 9842     		cmp	r0, r3
 2523 0152 79D0     		beq	.L302
 2524              		.loc 1 554 16 discriminator 82 view .LVU624
 2525 0154 03F50063 		add	r3, r3, #2048
 2526 0158 9842     		cmp	r0, r3
 2527 015a 77D0     		beq	.L303
 2528              		.loc 1 554 3 discriminator 84 view .LVU625
 2529 015c 03F58053 		add	r3, r3, #4096
 2530 0160 9842     		cmp	r0, r3
 2531 0162 01D0     		beq	.L306
 2532              		.loc 1 554 3 view .LVU626
 2533 0164 0020     		movs	r0, #0
 2534              	.LVL281:
 2535              		.loc 1 554 3 view .LVU627
 2536 0166 02E0     		b	.L253
ARM GAS  C:\Users\Anoolv\AppData\Local\Temp\ccdSiwxa.s 			page 58


 2537              	.LVL282:
 2538              	.L306:
 2539              		.loc 1 554 3 view .LVU628
 2540 0168 0120     		movs	r0, #1
 2541              	.LVL283:
 2542              		.loc 1 554 3 view .LVU629
 2543 016a 00E0     		b	.L253
 2544              	.LVL284:
 2545              	.L262:
 2546              		.loc 1 554 3 view .LVU630
 2547 016c 0120     		movs	r0, #1
 2548              	.LVL285:
 2549              	.L253:
 2550              		.loc 1 554 3 discriminator 88 view .LVU631
 2551 016e FFF7FEFF 		bl	assert_param
 2552              	.LVL286:
 555:STM32F10x_StdPeriph_Driver/src/stm32f10x_gpio.c ****   assert_param(IS_FUNCTIONAL_STATE(NewState));  
 2553              		.loc 1 555 3 is_stmt 1 discriminator 88 view .LVU632
 2554 0172 012D     		cmp	r5, #1
 2555 0174 8CBF     		ite	hi
 2556 0176 0020     		movhi	r0, #0
 2557 0178 0120     		movls	r0, #1
 2558 017a FFF7FEFF 		bl	assert_param
 2559              	.LVL287:
 556:STM32F10x_StdPeriph_Driver/src/stm32f10x_gpio.c ****   
 557:STM32F10x_StdPeriph_Driver/src/stm32f10x_gpio.c ****   if((GPIO_Remap & 0x80000000) == 0x80000000)
 2560              		.loc 1 557 3 discriminator 88 view .LVU633
 2561              		.loc 1 557 5 is_stmt 0 discriminator 88 view .LVU634
 2562 017e 002C     		cmp	r4, #0
 2563 0180 66DB     		blt	.L307
 558:STM32F10x_StdPeriph_Driver/src/stm32f10x_gpio.c ****   {
 559:STM32F10x_StdPeriph_Driver/src/stm32f10x_gpio.c ****     tmpreg = AFIO->MAPR2;
 560:STM32F10x_StdPeriph_Driver/src/stm32f10x_gpio.c ****   }
 561:STM32F10x_StdPeriph_Driver/src/stm32f10x_gpio.c ****   else
 562:STM32F10x_StdPeriph_Driver/src/stm32f10x_gpio.c ****   {
 563:STM32F10x_StdPeriph_Driver/src/stm32f10x_gpio.c ****     tmpreg = AFIO->MAPR;
 2564              		.loc 1 563 5 is_stmt 1 view .LVU635
 2565              		.loc 1 563 12 is_stmt 0 view .LVU636
 2566 0182 4B4B     		ldr	r3, .L310+32
 2567 0184 5B68     		ldr	r3, [r3, #4]
 2568              	.LVL288:
 2569              	.L255:
 564:STM32F10x_StdPeriph_Driver/src/stm32f10x_gpio.c ****   }
 565:STM32F10x_StdPeriph_Driver/src/stm32f10x_gpio.c **** 
 566:STM32F10x_StdPeriph_Driver/src/stm32f10x_gpio.c ****   tmpmask = (GPIO_Remap & DBGAFR_POSITION_MASK) >> 0x10;
 2570              		.loc 1 566 3 is_stmt 1 view .LVU637
 2571              		.loc 1 566 11 is_stmt 0 view .LVU638
 2572 0186 C4F30340 		ubfx	r0, r4, #16, #4
 2573              	.LVL289:
 567:STM32F10x_StdPeriph_Driver/src/stm32f10x_gpio.c ****   tmp = GPIO_Remap & LSB_MASK;
 2574              		.loc 1 567 3 is_stmt 1 view .LVU639
 2575              		.loc 1 567 7 is_stmt 0 view .LVU640
 2576 018a A2B2     		uxth	r2, r4
 2577              	.LVL290:
 568:STM32F10x_StdPeriph_Driver/src/stm32f10x_gpio.c **** 
 569:STM32F10x_StdPeriph_Driver/src/stm32f10x_gpio.c ****   if ((GPIO_Remap & (DBGAFR_LOCATION_MASK | DBGAFR_NUMBITS_MASK)) == (DBGAFR_LOCATION_MASK | DBGAFR
 2578              		.loc 1 569 3 is_stmt 1 view .LVU641
ARM GAS  C:\Users\Anoolv\AppData\Local\Temp\ccdSiwxa.s 			page 59


 2579              		.loc 1 569 19 is_stmt 0 view .LVU642
 2580 018c 04F44011 		and	r1, r4, #3145728
 2581              		.loc 1 569 6 view .LVU643
 2582 0190 B1F5401F 		cmp	r1, #3145728
 2583 0194 5FD0     		beq	.L308
 570:STM32F10x_StdPeriph_Driver/src/stm32f10x_gpio.c ****   {
 571:STM32F10x_StdPeriph_Driver/src/stm32f10x_gpio.c ****     tmpreg &= DBGAFR_SWJCFG_MASK;
 572:STM32F10x_StdPeriph_Driver/src/stm32f10x_gpio.c ****     AFIO->MAPR &= DBGAFR_SWJCFG_MASK;
 573:STM32F10x_StdPeriph_Driver/src/stm32f10x_gpio.c ****   }
 574:STM32F10x_StdPeriph_Driver/src/stm32f10x_gpio.c ****   else if ((GPIO_Remap & DBGAFR_NUMBITS_MASK) == DBGAFR_NUMBITS_MASK)
 2584              		.loc 1 574 8 is_stmt 1 view .LVU644
 2585              		.loc 1 574 11 is_stmt 0 view .LVU645
 2586 0196 14F4801F 		tst	r4, #1048576
 2587 019a 6DD0     		beq	.L258
 575:STM32F10x_StdPeriph_Driver/src/stm32f10x_gpio.c ****   {
 576:STM32F10x_StdPeriph_Driver/src/stm32f10x_gpio.c ****     tmp1 = ((uint32_t)0x03) << tmpmask;
 2588              		.loc 1 576 5 is_stmt 1 view .LVU646
 2589              		.loc 1 576 10 is_stmt 0 view .LVU647
 2590 019c 0321     		movs	r1, #3
 2591 019e 01FA00F0 		lsl	r0, r1, r0
 2592              	.LVL291:
 577:STM32F10x_StdPeriph_Driver/src/stm32f10x_gpio.c ****     tmpreg &= ~tmp1;
 2593              		.loc 1 577 5 is_stmt 1 view .LVU648
 2594              		.loc 1 577 12 is_stmt 0 view .LVU649
 2595 01a2 23EA0003 		bic	r3, r3, r0
 2596              	.LVL292:
 578:STM32F10x_StdPeriph_Driver/src/stm32f10x_gpio.c ****     tmpreg |= ~DBGAFR_SWJCFG_MASK;
 2597              		.loc 1 578 5 is_stmt 1 view .LVU650
 2598              		.loc 1 578 12 is_stmt 0 view .LVU651
 2599 01a6 43F07063 		orr	r3, r3, #251658240
 2600              	.LVL293:
 2601              		.loc 1 578 12 view .LVU652
 2602 01aa 5BE0     		b	.L257
 2603              	.LVL294:
 2604              	.L263:
 554:STM32F10x_StdPeriph_Driver/src/stm32f10x_gpio.c ****   assert_param(IS_FUNCTIONAL_STATE(NewState));  
 2605              		.loc 1 554 3 view .LVU653
 2606 01ac 0120     		movs	r0, #1
 2607              	.LVL295:
 554:STM32F10x_StdPeriph_Driver/src/stm32f10x_gpio.c ****   assert_param(IS_FUNCTIONAL_STATE(NewState));  
 2608              		.loc 1 554 3 view .LVU654
 2609 01ae DEE7     		b	.L253
 2610              	.LVL296:
 2611              	.L264:
 554:STM32F10x_StdPeriph_Driver/src/stm32f10x_gpio.c ****   assert_param(IS_FUNCTIONAL_STATE(NewState));  
 2612              		.loc 1 554 3 view .LVU655
 2613 01b0 0120     		movs	r0, #1
 2614              	.LVL297:
 554:STM32F10x_StdPeriph_Driver/src/stm32f10x_gpio.c ****   assert_param(IS_FUNCTIONAL_STATE(NewState));  
 2615              		.loc 1 554 3 view .LVU656
 2616 01b2 DCE7     		b	.L253
 2617              	.LVL298:
 2618              	.L265:
 554:STM32F10x_StdPeriph_Driver/src/stm32f10x_gpio.c ****   assert_param(IS_FUNCTIONAL_STATE(NewState));  
 2619              		.loc 1 554 3 view .LVU657
 2620 01b4 0120     		movs	r0, #1
 2621              	.LVL299:
ARM GAS  C:\Users\Anoolv\AppData\Local\Temp\ccdSiwxa.s 			page 60


 554:STM32F10x_StdPeriph_Driver/src/stm32f10x_gpio.c ****   assert_param(IS_FUNCTIONAL_STATE(NewState));  
 2622              		.loc 1 554 3 view .LVU658
 2623 01b6 DAE7     		b	.L253
 2624              	.LVL300:
 2625              	.L266:
 554:STM32F10x_StdPeriph_Driver/src/stm32f10x_gpio.c ****   assert_param(IS_FUNCTIONAL_STATE(NewState));  
 2626              		.loc 1 554 3 view .LVU659
 2627 01b8 0120     		movs	r0, #1
 2628              	.LVL301:
 554:STM32F10x_StdPeriph_Driver/src/stm32f10x_gpio.c ****   assert_param(IS_FUNCTIONAL_STATE(NewState));  
 2629              		.loc 1 554 3 view .LVU660
 2630 01ba D8E7     		b	.L253
 2631              	.LVL302:
 2632              	.L267:
 554:STM32F10x_StdPeriph_Driver/src/stm32f10x_gpio.c ****   assert_param(IS_FUNCTIONAL_STATE(NewState));  
 2633              		.loc 1 554 3 view .LVU661
 2634 01bc 0120     		movs	r0, #1
 2635              	.LVL303:
 554:STM32F10x_StdPeriph_Driver/src/stm32f10x_gpio.c ****   assert_param(IS_FUNCTIONAL_STATE(NewState));  
 2636              		.loc 1 554 3 view .LVU662
 2637 01be D6E7     		b	.L253
 2638              	.LVL304:
 2639              	.L268:
 554:STM32F10x_StdPeriph_Driver/src/stm32f10x_gpio.c ****   assert_param(IS_FUNCTIONAL_STATE(NewState));  
 2640              		.loc 1 554 3 view .LVU663
 2641 01c0 0120     		movs	r0, #1
 2642              	.LVL305:
 554:STM32F10x_StdPeriph_Driver/src/stm32f10x_gpio.c ****   assert_param(IS_FUNCTIONAL_STATE(NewState));  
 2643              		.loc 1 554 3 view .LVU664
 2644 01c2 D4E7     		b	.L253
 2645              	.LVL306:
 2646              	.L269:
 554:STM32F10x_StdPeriph_Driver/src/stm32f10x_gpio.c ****   assert_param(IS_FUNCTIONAL_STATE(NewState));  
 2647              		.loc 1 554 3 view .LVU665
 2648 01c4 0120     		movs	r0, #1
 2649              	.LVL307:
 554:STM32F10x_StdPeriph_Driver/src/stm32f10x_gpio.c ****   assert_param(IS_FUNCTIONAL_STATE(NewState));  
 2650              		.loc 1 554 3 view .LVU666
 2651 01c6 D2E7     		b	.L253
 2652              	.LVL308:
 2653              	.L270:
 554:STM32F10x_StdPeriph_Driver/src/stm32f10x_gpio.c ****   assert_param(IS_FUNCTIONAL_STATE(NewState));  
 2654              		.loc 1 554 3 view .LVU667
 2655 01c8 0120     		movs	r0, #1
 2656              	.LVL309:
 554:STM32F10x_StdPeriph_Driver/src/stm32f10x_gpio.c ****   assert_param(IS_FUNCTIONAL_STATE(NewState));  
 2657              		.loc 1 554 3 view .LVU668
 2658 01ca D0E7     		b	.L253
 2659              	.LVL310:
 2660              	.L271:
 554:STM32F10x_StdPeriph_Driver/src/stm32f10x_gpio.c ****   assert_param(IS_FUNCTIONAL_STATE(NewState));  
 2661              		.loc 1 554 3 view .LVU669
 2662 01cc 0120     		movs	r0, #1
 2663              	.LVL311:
 554:STM32F10x_StdPeriph_Driver/src/stm32f10x_gpio.c ****   assert_param(IS_FUNCTIONAL_STATE(NewState));  
 2664              		.loc 1 554 3 view .LVU670
 2665 01ce CEE7     		b	.L253
ARM GAS  C:\Users\Anoolv\AppData\Local\Temp\ccdSiwxa.s 			page 61


 2666              	.LVL312:
 2667              	.L272:
 554:STM32F10x_StdPeriph_Driver/src/stm32f10x_gpio.c ****   assert_param(IS_FUNCTIONAL_STATE(NewState));  
 2668              		.loc 1 554 3 view .LVU671
 2669 01d0 0120     		movs	r0, #1
 2670              	.LVL313:
 554:STM32F10x_StdPeriph_Driver/src/stm32f10x_gpio.c ****   assert_param(IS_FUNCTIONAL_STATE(NewState));  
 2671              		.loc 1 554 3 view .LVU672
 2672 01d2 CCE7     		b	.L253
 2673              	.LVL314:
 2674              	.L273:
 554:STM32F10x_StdPeriph_Driver/src/stm32f10x_gpio.c ****   assert_param(IS_FUNCTIONAL_STATE(NewState));  
 2675              		.loc 1 554 3 view .LVU673
 2676 01d4 0120     		movs	r0, #1
 2677              	.LVL315:
 554:STM32F10x_StdPeriph_Driver/src/stm32f10x_gpio.c ****   assert_param(IS_FUNCTIONAL_STATE(NewState));  
 2678              		.loc 1 554 3 view .LVU674
 2679 01d6 CAE7     		b	.L253
 2680              	.LVL316:
 2681              	.L274:
 554:STM32F10x_StdPeriph_Driver/src/stm32f10x_gpio.c ****   assert_param(IS_FUNCTIONAL_STATE(NewState));  
 2682              		.loc 1 554 3 view .LVU675
 2683 01d8 0120     		movs	r0, #1
 2684              	.LVL317:
 554:STM32F10x_StdPeriph_Driver/src/stm32f10x_gpio.c ****   assert_param(IS_FUNCTIONAL_STATE(NewState));  
 2685              		.loc 1 554 3 view .LVU676
 2686 01da C8E7     		b	.L253
 2687              	.LVL318:
 2688              	.L275:
 554:STM32F10x_StdPeriph_Driver/src/stm32f10x_gpio.c ****   assert_param(IS_FUNCTIONAL_STATE(NewState));  
 2689              		.loc 1 554 3 view .LVU677
 2690 01dc 0120     		movs	r0, #1
 2691              	.LVL319:
 554:STM32F10x_StdPeriph_Driver/src/stm32f10x_gpio.c ****   assert_param(IS_FUNCTIONAL_STATE(NewState));  
 2692              		.loc 1 554 3 view .LVU678
 2693 01de C6E7     		b	.L253
 2694              	.LVL320:
 2695              	.L276:
 554:STM32F10x_StdPeriph_Driver/src/stm32f10x_gpio.c ****   assert_param(IS_FUNCTIONAL_STATE(NewState));  
 2696              		.loc 1 554 3 view .LVU679
 2697 01e0 0120     		movs	r0, #1
 2698              	.LVL321:
 554:STM32F10x_StdPeriph_Driver/src/stm32f10x_gpio.c ****   assert_param(IS_FUNCTIONAL_STATE(NewState));  
 2699              		.loc 1 554 3 view .LVU680
 2700 01e2 C4E7     		b	.L253
 2701              	.LVL322:
 2702              	.L277:
 554:STM32F10x_StdPeriph_Driver/src/stm32f10x_gpio.c ****   assert_param(IS_FUNCTIONAL_STATE(NewState));  
 2703              		.loc 1 554 3 view .LVU681
 2704 01e4 0120     		movs	r0, #1
 2705              	.LVL323:
 554:STM32F10x_StdPeriph_Driver/src/stm32f10x_gpio.c ****   assert_param(IS_FUNCTIONAL_STATE(NewState));  
 2706              		.loc 1 554 3 view .LVU682
 2707 01e6 C2E7     		b	.L253
 2708              	.LVL324:
 2709              	.L278:
 554:STM32F10x_StdPeriph_Driver/src/stm32f10x_gpio.c ****   assert_param(IS_FUNCTIONAL_STATE(NewState));  
ARM GAS  C:\Users\Anoolv\AppData\Local\Temp\ccdSiwxa.s 			page 62


 2710              		.loc 1 554 3 view .LVU683
 2711 01e8 0120     		movs	r0, #1
 2712              	.LVL325:
 554:STM32F10x_StdPeriph_Driver/src/stm32f10x_gpio.c ****   assert_param(IS_FUNCTIONAL_STATE(NewState));  
 2713              		.loc 1 554 3 view .LVU684
 2714 01ea C0E7     		b	.L253
 2715              	.LVL326:
 2716              	.L279:
 554:STM32F10x_StdPeriph_Driver/src/stm32f10x_gpio.c ****   assert_param(IS_FUNCTIONAL_STATE(NewState));  
 2717              		.loc 1 554 3 view .LVU685
 2718 01ec 0120     		movs	r0, #1
 2719              	.LVL327:
 554:STM32F10x_StdPeriph_Driver/src/stm32f10x_gpio.c ****   assert_param(IS_FUNCTIONAL_STATE(NewState));  
 2720              		.loc 1 554 3 view .LVU686
 2721 01ee BEE7     		b	.L253
 2722              	.LVL328:
 2723              	.L280:
 554:STM32F10x_StdPeriph_Driver/src/stm32f10x_gpio.c ****   assert_param(IS_FUNCTIONAL_STATE(NewState));  
 2724              		.loc 1 554 3 view .LVU687
 2725 01f0 0120     		movs	r0, #1
 2726              	.LVL329:
 554:STM32F10x_StdPeriph_Driver/src/stm32f10x_gpio.c ****   assert_param(IS_FUNCTIONAL_STATE(NewState));  
 2727              		.loc 1 554 3 view .LVU688
 2728 01f2 BCE7     		b	.L253
 2729              	.LVL330:
 2730              	.L281:
 554:STM32F10x_StdPeriph_Driver/src/stm32f10x_gpio.c ****   assert_param(IS_FUNCTIONAL_STATE(NewState));  
 2731              		.loc 1 554 3 view .LVU689
 2732 01f4 0120     		movs	r0, #1
 2733              	.LVL331:
 554:STM32F10x_StdPeriph_Driver/src/stm32f10x_gpio.c ****   assert_param(IS_FUNCTIONAL_STATE(NewState));  
 2734              		.loc 1 554 3 view .LVU690
 2735 01f6 BAE7     		b	.L253
 2736              	.LVL332:
 2737              	.L282:
 554:STM32F10x_StdPeriph_Driver/src/stm32f10x_gpio.c ****   assert_param(IS_FUNCTIONAL_STATE(NewState));  
 2738              		.loc 1 554 3 view .LVU691
 2739 01f8 0120     		movs	r0, #1
 2740              	.LVL333:
 554:STM32F10x_StdPeriph_Driver/src/stm32f10x_gpio.c ****   assert_param(IS_FUNCTIONAL_STATE(NewState));  
 2741              		.loc 1 554 3 view .LVU692
 2742 01fa B8E7     		b	.L253
 2743              	.LVL334:
 2744              	.L283:
 554:STM32F10x_StdPeriph_Driver/src/stm32f10x_gpio.c ****   assert_param(IS_FUNCTIONAL_STATE(NewState));  
 2745              		.loc 1 554 3 view .LVU693
 2746 01fc 0120     		movs	r0, #1
 2747              	.LVL335:
 554:STM32F10x_StdPeriph_Driver/src/stm32f10x_gpio.c ****   assert_param(IS_FUNCTIONAL_STATE(NewState));  
 2748              		.loc 1 554 3 view .LVU694
 2749 01fe B6E7     		b	.L253
 2750              	.LVL336:
 2751              	.L284:
 554:STM32F10x_StdPeriph_Driver/src/stm32f10x_gpio.c ****   assert_param(IS_FUNCTIONAL_STATE(NewState));  
 2752              		.loc 1 554 3 view .LVU695
 2753 0200 0120     		movs	r0, #1
 2754              	.LVL337:
ARM GAS  C:\Users\Anoolv\AppData\Local\Temp\ccdSiwxa.s 			page 63


 554:STM32F10x_StdPeriph_Driver/src/stm32f10x_gpio.c ****   assert_param(IS_FUNCTIONAL_STATE(NewState));  
 2755              		.loc 1 554 3 view .LVU696
 2756 0202 B4E7     		b	.L253
 2757              	.LVL338:
 2758              	.L285:
 554:STM32F10x_StdPeriph_Driver/src/stm32f10x_gpio.c ****   assert_param(IS_FUNCTIONAL_STATE(NewState));  
 2759              		.loc 1 554 3 view .LVU697
 2760 0204 0120     		movs	r0, #1
 2761              	.LVL339:
 554:STM32F10x_StdPeriph_Driver/src/stm32f10x_gpio.c ****   assert_param(IS_FUNCTIONAL_STATE(NewState));  
 2762              		.loc 1 554 3 view .LVU698
 2763 0206 B2E7     		b	.L253
 2764              	.LVL340:
 2765              	.L286:
 554:STM32F10x_StdPeriph_Driver/src/stm32f10x_gpio.c ****   assert_param(IS_FUNCTIONAL_STATE(NewState));  
 2766              		.loc 1 554 3 view .LVU699
 2767 0208 0120     		movs	r0, #1
 2768              	.LVL341:
 554:STM32F10x_StdPeriph_Driver/src/stm32f10x_gpio.c ****   assert_param(IS_FUNCTIONAL_STATE(NewState));  
 2769              		.loc 1 554 3 view .LVU700
 2770 020a B0E7     		b	.L253
 2771              	.LVL342:
 2772              	.L287:
 554:STM32F10x_StdPeriph_Driver/src/stm32f10x_gpio.c ****   assert_param(IS_FUNCTIONAL_STATE(NewState));  
 2773              		.loc 1 554 3 view .LVU701
 2774 020c 0120     		movs	r0, #1
 2775              	.LVL343:
 554:STM32F10x_StdPeriph_Driver/src/stm32f10x_gpio.c ****   assert_param(IS_FUNCTIONAL_STATE(NewState));  
 2776              		.loc 1 554 3 view .LVU702
 2777 020e AEE7     		b	.L253
 2778              	.LVL344:
 2779              	.L288:
 554:STM32F10x_StdPeriph_Driver/src/stm32f10x_gpio.c ****   assert_param(IS_FUNCTIONAL_STATE(NewState));  
 2780              		.loc 1 554 3 view .LVU703
 2781 0210 0120     		movs	r0, #1
 2782              	.LVL345:
 554:STM32F10x_StdPeriph_Driver/src/stm32f10x_gpio.c ****   assert_param(IS_FUNCTIONAL_STATE(NewState));  
 2783              		.loc 1 554 3 view .LVU704
 2784 0212 ACE7     		b	.L253
 2785              	.LVL346:
 2786              	.L289:
 554:STM32F10x_StdPeriph_Driver/src/stm32f10x_gpio.c ****   assert_param(IS_FUNCTIONAL_STATE(NewState));  
 2787              		.loc 1 554 3 view .LVU705
 2788 0214 0120     		movs	r0, #1
 2789              	.LVL347:
 554:STM32F10x_StdPeriph_Driver/src/stm32f10x_gpio.c ****   assert_param(IS_FUNCTIONAL_STATE(NewState));  
 2790              		.loc 1 554 3 view .LVU706
 2791 0216 AAE7     		b	.L253
 2792              	.LVL348:
 2793              	.L290:
 554:STM32F10x_StdPeriph_Driver/src/stm32f10x_gpio.c ****   assert_param(IS_FUNCTIONAL_STATE(NewState));  
 2794              		.loc 1 554 3 view .LVU707
 2795 0218 0120     		movs	r0, #1
 2796              	.LVL349:
 554:STM32F10x_StdPeriph_Driver/src/stm32f10x_gpio.c ****   assert_param(IS_FUNCTIONAL_STATE(NewState));  
 2797              		.loc 1 554 3 view .LVU708
 2798 021a A8E7     		b	.L253
ARM GAS  C:\Users\Anoolv\AppData\Local\Temp\ccdSiwxa.s 			page 64


 2799              	.LVL350:
 2800              	.L291:
 554:STM32F10x_StdPeriph_Driver/src/stm32f10x_gpio.c ****   assert_param(IS_FUNCTIONAL_STATE(NewState));  
 2801              		.loc 1 554 3 view .LVU709
 2802 021c 0120     		movs	r0, #1
 2803              	.LVL351:
 554:STM32F10x_StdPeriph_Driver/src/stm32f10x_gpio.c ****   assert_param(IS_FUNCTIONAL_STATE(NewState));  
 2804              		.loc 1 554 3 view .LVU710
 2805 021e A6E7     		b	.L253
 2806              	.LVL352:
 2807              	.L292:
 554:STM32F10x_StdPeriph_Driver/src/stm32f10x_gpio.c ****   assert_param(IS_FUNCTIONAL_STATE(NewState));  
 2808              		.loc 1 554 3 view .LVU711
 2809 0220 0120     		movs	r0, #1
 2810              	.LVL353:
 554:STM32F10x_StdPeriph_Driver/src/stm32f10x_gpio.c ****   assert_param(IS_FUNCTIONAL_STATE(NewState));  
 2811              		.loc 1 554 3 view .LVU712
 2812 0222 A4E7     		b	.L253
 2813              	.LVL354:
 2814              	.L293:
 554:STM32F10x_StdPeriph_Driver/src/stm32f10x_gpio.c ****   assert_param(IS_FUNCTIONAL_STATE(NewState));  
 2815              		.loc 1 554 3 view .LVU713
 2816 0224 0120     		movs	r0, #1
 2817              	.LVL355:
 554:STM32F10x_StdPeriph_Driver/src/stm32f10x_gpio.c ****   assert_param(IS_FUNCTIONAL_STATE(NewState));  
 2818              		.loc 1 554 3 view .LVU714
 2819 0226 A2E7     		b	.L253
 2820              	.LVL356:
 2821              	.L294:
 554:STM32F10x_StdPeriph_Driver/src/stm32f10x_gpio.c ****   assert_param(IS_FUNCTIONAL_STATE(NewState));  
 2822              		.loc 1 554 3 view .LVU715
 2823 0228 0120     		movs	r0, #1
 2824              	.LVL357:
 554:STM32F10x_StdPeriph_Driver/src/stm32f10x_gpio.c ****   assert_param(IS_FUNCTIONAL_STATE(NewState));  
 2825              		.loc 1 554 3 view .LVU716
 2826 022a A0E7     		b	.L253
 2827              	.LVL358:
 2828              	.L295:
 554:STM32F10x_StdPeriph_Driver/src/stm32f10x_gpio.c ****   assert_param(IS_FUNCTIONAL_STATE(NewState));  
 2829              		.loc 1 554 3 view .LVU717
 2830 022c 0120     		movs	r0, #1
 2831              	.LVL359:
 554:STM32F10x_StdPeriph_Driver/src/stm32f10x_gpio.c ****   assert_param(IS_FUNCTIONAL_STATE(NewState));  
 2832              		.loc 1 554 3 view .LVU718
 2833 022e 9EE7     		b	.L253
 2834              	.LVL360:
 2835              	.L296:
 554:STM32F10x_StdPeriph_Driver/src/stm32f10x_gpio.c ****   assert_param(IS_FUNCTIONAL_STATE(NewState));  
 2836              		.loc 1 554 3 view .LVU719
 2837 0230 0120     		movs	r0, #1
 2838              	.LVL361:
 554:STM32F10x_StdPeriph_Driver/src/stm32f10x_gpio.c ****   assert_param(IS_FUNCTIONAL_STATE(NewState));  
 2839              		.loc 1 554 3 view .LVU720
 2840 0232 9CE7     		b	.L253
 2841              	.LVL362:
 2842              	.L297:
 554:STM32F10x_StdPeriph_Driver/src/stm32f10x_gpio.c ****   assert_param(IS_FUNCTIONAL_STATE(NewState));  
ARM GAS  C:\Users\Anoolv\AppData\Local\Temp\ccdSiwxa.s 			page 65


 2843              		.loc 1 554 3 view .LVU721
 2844 0234 0120     		movs	r0, #1
 2845              	.LVL363:
 554:STM32F10x_StdPeriph_Driver/src/stm32f10x_gpio.c ****   assert_param(IS_FUNCTIONAL_STATE(NewState));  
 2846              		.loc 1 554 3 view .LVU722
 2847 0236 9AE7     		b	.L253
 2848              	.LVL364:
 2849              	.L298:
 554:STM32F10x_StdPeriph_Driver/src/stm32f10x_gpio.c ****   assert_param(IS_FUNCTIONAL_STATE(NewState));  
 2850              		.loc 1 554 3 view .LVU723
 2851 0238 0120     		movs	r0, #1
 2852              	.LVL365:
 554:STM32F10x_StdPeriph_Driver/src/stm32f10x_gpio.c ****   assert_param(IS_FUNCTIONAL_STATE(NewState));  
 2853              		.loc 1 554 3 view .LVU724
 2854 023a 98E7     		b	.L253
 2855              	.LVL366:
 2856              	.L299:
 554:STM32F10x_StdPeriph_Driver/src/stm32f10x_gpio.c ****   assert_param(IS_FUNCTIONAL_STATE(NewState));  
 2857              		.loc 1 554 3 view .LVU725
 2858 023c 0120     		movs	r0, #1
 2859              	.LVL367:
 554:STM32F10x_StdPeriph_Driver/src/stm32f10x_gpio.c ****   assert_param(IS_FUNCTIONAL_STATE(NewState));  
 2860              		.loc 1 554 3 view .LVU726
 2861 023e 96E7     		b	.L253
 2862              	.LVL368:
 2863              	.L300:
 554:STM32F10x_StdPeriph_Driver/src/stm32f10x_gpio.c ****   assert_param(IS_FUNCTIONAL_STATE(NewState));  
 2864              		.loc 1 554 3 view .LVU727
 2865 0240 0120     		movs	r0, #1
 2866              	.LVL369:
 554:STM32F10x_StdPeriph_Driver/src/stm32f10x_gpio.c ****   assert_param(IS_FUNCTIONAL_STATE(NewState));  
 2867              		.loc 1 554 3 view .LVU728
 2868 0242 94E7     		b	.L253
 2869              	.LVL370:
 2870              	.L301:
 554:STM32F10x_StdPeriph_Driver/src/stm32f10x_gpio.c ****   assert_param(IS_FUNCTIONAL_STATE(NewState));  
 2871              		.loc 1 554 3 view .LVU729
 2872 0244 0120     		movs	r0, #1
 2873              	.LVL371:
 554:STM32F10x_StdPeriph_Driver/src/stm32f10x_gpio.c ****   assert_param(IS_FUNCTIONAL_STATE(NewState));  
 2874              		.loc 1 554 3 view .LVU730
 2875 0246 92E7     		b	.L253
 2876              	.LVL372:
 2877              	.L302:
 554:STM32F10x_StdPeriph_Driver/src/stm32f10x_gpio.c ****   assert_param(IS_FUNCTIONAL_STATE(NewState));  
 2878              		.loc 1 554 3 view .LVU731
 2879 0248 0120     		movs	r0, #1
 2880              	.LVL373:
 554:STM32F10x_StdPeriph_Driver/src/stm32f10x_gpio.c ****   assert_param(IS_FUNCTIONAL_STATE(NewState));  
 2881              		.loc 1 554 3 view .LVU732
 2882 024a 90E7     		b	.L253
 2883              	.LVL374:
 2884              	.L303:
 554:STM32F10x_StdPeriph_Driver/src/stm32f10x_gpio.c ****   assert_param(IS_FUNCTIONAL_STATE(NewState));  
 2885              		.loc 1 554 3 view .LVU733
 2886 024c 0120     		movs	r0, #1
 2887              	.LVL375:
ARM GAS  C:\Users\Anoolv\AppData\Local\Temp\ccdSiwxa.s 			page 66


 554:STM32F10x_StdPeriph_Driver/src/stm32f10x_gpio.c ****   assert_param(IS_FUNCTIONAL_STATE(NewState));  
 2888              		.loc 1 554 3 view .LVU734
 2889 024e 8EE7     		b	.L253
 2890              	.LVL376:
 2891              	.L307:
 559:STM32F10x_StdPeriph_Driver/src/stm32f10x_gpio.c ****   }
 2892              		.loc 1 559 5 is_stmt 1 view .LVU735
 559:STM32F10x_StdPeriph_Driver/src/stm32f10x_gpio.c ****   }
 2893              		.loc 1 559 12 is_stmt 0 view .LVU736
 2894 0250 174B     		ldr	r3, .L310+32
 2895 0252 DB69     		ldr	r3, [r3, #28]
 2896              	.LVL377:
 559:STM32F10x_StdPeriph_Driver/src/stm32f10x_gpio.c ****   }
 2897              		.loc 1 559 12 view .LVU737
 2898 0254 97E7     		b	.L255
 2899              	.LVL378:
 2900              	.L308:
 571:STM32F10x_StdPeriph_Driver/src/stm32f10x_gpio.c ****     AFIO->MAPR &= DBGAFR_SWJCFG_MASK;
 2901              		.loc 1 571 5 is_stmt 1 view .LVU738
 571:STM32F10x_StdPeriph_Driver/src/stm32f10x_gpio.c ****     AFIO->MAPR &= DBGAFR_SWJCFG_MASK;
 2902              		.loc 1 571 12 is_stmt 0 view .LVU739
 2903 0256 23F07063 		bic	r3, r3, #251658240
 2904              	.LVL379:
 572:STM32F10x_StdPeriph_Driver/src/stm32f10x_gpio.c ****   }
 2905              		.loc 1 572 5 is_stmt 1 view .LVU740
 572:STM32F10x_StdPeriph_Driver/src/stm32f10x_gpio.c ****   }
 2906              		.loc 1 572 16 is_stmt 0 view .LVU741
 2907 025a 1548     		ldr	r0, .L310+32
 2908              	.LVL380:
 572:STM32F10x_StdPeriph_Driver/src/stm32f10x_gpio.c ****   }
 2909              		.loc 1 572 16 view .LVU742
 2910 025c 4168     		ldr	r1, [r0, #4]
 2911 025e 21F07061 		bic	r1, r1, #251658240
 2912 0262 4160     		str	r1, [r0, #4]
 2913              	.LVL381:
 2914              	.L257:
 579:STM32F10x_StdPeriph_Driver/src/stm32f10x_gpio.c ****   }
 580:STM32F10x_StdPeriph_Driver/src/stm32f10x_gpio.c ****   else
 581:STM32F10x_StdPeriph_Driver/src/stm32f10x_gpio.c ****   {
 582:STM32F10x_StdPeriph_Driver/src/stm32f10x_gpio.c ****     tmpreg &= ~(tmp << ((GPIO_Remap >> 0x15)*0x10));
 583:STM32F10x_StdPeriph_Driver/src/stm32f10x_gpio.c ****     tmpreg |= ~DBGAFR_SWJCFG_MASK;
 584:STM32F10x_StdPeriph_Driver/src/stm32f10x_gpio.c ****   }
 585:STM32F10x_StdPeriph_Driver/src/stm32f10x_gpio.c **** 
 586:STM32F10x_StdPeriph_Driver/src/stm32f10x_gpio.c ****   if (NewState != DISABLE)
 2915              		.loc 1 586 3 is_stmt 1 view .LVU743
 2916              		.loc 1 586 6 is_stmt 0 view .LVU744
 2917 0264 1DB1     		cbz	r5, .L259
 587:STM32F10x_StdPeriph_Driver/src/stm32f10x_gpio.c ****   {
 588:STM32F10x_StdPeriph_Driver/src/stm32f10x_gpio.c ****     tmpreg |= (tmp << ((GPIO_Remap >> 0x15)*0x10));
 2918              		.loc 1 588 5 is_stmt 1 view .LVU745
 2919              		.loc 1 588 36 is_stmt 0 view .LVU746
 2920 0266 610D     		lsrs	r1, r4, #21
 2921              		.loc 1 588 44 view .LVU747
 2922 0268 0901     		lsls	r1, r1, #4
 2923              		.loc 1 588 20 view .LVU748
 2924 026a 8A40     		lsls	r2, r2, r1
 2925              	.LVL382:
ARM GAS  C:\Users\Anoolv\AppData\Local\Temp\ccdSiwxa.s 			page 67


 2926              		.loc 1 588 12 view .LVU749
 2927 026c 1343     		orrs	r3, r3, r2
 2928              	.LVL383:
 2929              	.L259:
 589:STM32F10x_StdPeriph_Driver/src/stm32f10x_gpio.c ****   }
 590:STM32F10x_StdPeriph_Driver/src/stm32f10x_gpio.c **** 
 591:STM32F10x_StdPeriph_Driver/src/stm32f10x_gpio.c ****   if((GPIO_Remap & 0x80000000) == 0x80000000)
 2930              		.loc 1 591 3 is_stmt 1 view .LVU750
 2931              		.loc 1 591 5 is_stmt 0 view .LVU751
 2932 026e 002C     		cmp	r4, #0
 2933 0270 0BDB     		blt	.L309
 592:STM32F10x_StdPeriph_Driver/src/stm32f10x_gpio.c ****   {
 593:STM32F10x_StdPeriph_Driver/src/stm32f10x_gpio.c ****     AFIO->MAPR2 = tmpreg;
 594:STM32F10x_StdPeriph_Driver/src/stm32f10x_gpio.c ****   }
 595:STM32F10x_StdPeriph_Driver/src/stm32f10x_gpio.c ****   else
 596:STM32F10x_StdPeriph_Driver/src/stm32f10x_gpio.c ****   {
 597:STM32F10x_StdPeriph_Driver/src/stm32f10x_gpio.c ****     AFIO->MAPR = tmpreg;
 2934              		.loc 1 597 5 is_stmt 1 view .LVU752
 2935              		.loc 1 597 16 is_stmt 0 view .LVU753
 2936 0272 0F4A     		ldr	r2, .L310+32
 2937 0274 5360     		str	r3, [r2, #4]
 2938              	.L252:
 598:STM32F10x_StdPeriph_Driver/src/stm32f10x_gpio.c ****   }  
 599:STM32F10x_StdPeriph_Driver/src/stm32f10x_gpio.c **** }
 2939              		.loc 1 599 1 view .LVU754
 2940 0276 38BD     		pop	{r3, r4, r5, pc}
 2941              	.LVL384:
 2942              	.L258:
 582:STM32F10x_StdPeriph_Driver/src/stm32f10x_gpio.c ****     tmpreg |= ~DBGAFR_SWJCFG_MASK;
 2943              		.loc 1 582 5 is_stmt 1 view .LVU755
 582:STM32F10x_StdPeriph_Driver/src/stm32f10x_gpio.c ****     tmpreg |= ~DBGAFR_SWJCFG_MASK;
 2944              		.loc 1 582 37 is_stmt 0 view .LVU756
 2945 0278 610D     		lsrs	r1, r4, #21
 582:STM32F10x_StdPeriph_Driver/src/stm32f10x_gpio.c ****     tmpreg |= ~DBGAFR_SWJCFG_MASK;
 2946              		.loc 1 582 45 view .LVU757
 2947 027a 0901     		lsls	r1, r1, #4
 582:STM32F10x_StdPeriph_Driver/src/stm32f10x_gpio.c ****     tmpreg |= ~DBGAFR_SWJCFG_MASK;
 2948              		.loc 1 582 21 view .LVU758
 2949 027c 02FA01F1 		lsl	r1, r2, r1
 582:STM32F10x_StdPeriph_Driver/src/stm32f10x_gpio.c ****     tmpreg |= ~DBGAFR_SWJCFG_MASK;
 2950              		.loc 1 582 12 view .LVU759
 2951 0280 23EA0103 		bic	r3, r3, r1
 2952              	.LVL385:
 583:STM32F10x_StdPeriph_Driver/src/stm32f10x_gpio.c ****   }
 2953              		.loc 1 583 5 is_stmt 1 view .LVU760
 583:STM32F10x_StdPeriph_Driver/src/stm32f10x_gpio.c ****   }
 2954              		.loc 1 583 12 is_stmt 0 view .LVU761
 2955 0284 43F07063 		orr	r3, r3, #251658240
 2956              	.LVL386:
 583:STM32F10x_StdPeriph_Driver/src/stm32f10x_gpio.c ****   }
 2957              		.loc 1 583 12 view .LVU762
 2958 0288 ECE7     		b	.L257
 2959              	.LVL387:
 2960              	.L309:
 593:STM32F10x_StdPeriph_Driver/src/stm32f10x_gpio.c ****   }
 2961              		.loc 1 593 5 is_stmt 1 view .LVU763
 593:STM32F10x_StdPeriph_Driver/src/stm32f10x_gpio.c ****   }
ARM GAS  C:\Users\Anoolv\AppData\Local\Temp\ccdSiwxa.s 			page 68


 2962              		.loc 1 593 17 is_stmt 0 view .LVU764
 2963 028a 094A     		ldr	r2, .L310+32
 2964 028c D361     		str	r3, [r2, #28]
 2965 028e F2E7     		b	.L252
 2966              	.L311:
 2967              		.align	2
 2968              	.L310:
 2969 0290 10001400 		.word	1310736
 2970 0294 40001600 		.word	1441856
 2971 0298 00011800 		.word	1573120
 2972 029c 00081A00 		.word	1705984
 2973 02a0 01002000 		.word	2097153
 2974 02a4 00013000 		.word	3145984
 2975 02a8 00112000 		.word	2101504
 2976 02ac 01000080 		.word	-2147483647
 2977 02b0 00000140 		.word	1073807360
 2978              		.cfi_endproc
 2979              	.LFE44:
 2981              		.section	.text.GPIO_EXTILineConfig,"ax",%progbits
 2982              		.align	1
 2983              		.global	GPIO_EXTILineConfig
 2984              		.syntax unified
 2985              		.thumb
 2986              		.thumb_func
 2987              		.fpu softvfp
 2989              	GPIO_EXTILineConfig:
 2990              	.LVL388:
 2991              	.LFB45:
 600:STM32F10x_StdPeriph_Driver/src/stm32f10x_gpio.c **** 
 601:STM32F10x_StdPeriph_Driver/src/stm32f10x_gpio.c **** /**
 602:STM32F10x_StdPeriph_Driver/src/stm32f10x_gpio.c ****   * @brief  Selects the GPIO pin used as EXTI Line.
 603:STM32F10x_StdPeriph_Driver/src/stm32f10x_gpio.c ****   * @param  GPIO_PortSource: selects the GPIO port to be used as source for EXTI lines.
 604:STM32F10x_StdPeriph_Driver/src/stm32f10x_gpio.c ****   *   This parameter can be GPIO_PortSourceGPIOx where x can be (A..G).
 605:STM32F10x_StdPeriph_Driver/src/stm32f10x_gpio.c ****   * @param  GPIO_PinSource: specifies the EXTI line to be configured.
 606:STM32F10x_StdPeriph_Driver/src/stm32f10x_gpio.c ****   *   This parameter can be GPIO_PinSourcex where x can be (0..15).
 607:STM32F10x_StdPeriph_Driver/src/stm32f10x_gpio.c ****   * @retval None
 608:STM32F10x_StdPeriph_Driver/src/stm32f10x_gpio.c ****   */
 609:STM32F10x_StdPeriph_Driver/src/stm32f10x_gpio.c **** void GPIO_EXTILineConfig(uint8_t GPIO_PortSource, uint8_t GPIO_PinSource)
 610:STM32F10x_StdPeriph_Driver/src/stm32f10x_gpio.c **** {
 2992              		.loc 1 610 1 is_stmt 1 view -0
 2993              		.cfi_startproc
 2994              		@ args = 0, pretend = 0, frame = 0
 2995              		@ frame_needed = 0, uses_anonymous_args = 0
 2996              		.loc 1 610 1 is_stmt 0 view .LVU766
 2997 0000 38B5     		push	{r3, r4, r5, lr}
 2998              	.LCFI15:
 2999              		.cfi_def_cfa_offset 16
 3000              		.cfi_offset 3, -16
 3001              		.cfi_offset 4, -12
 3002              		.cfi_offset 5, -8
 3003              		.cfi_offset 14, -4
 3004 0002 0546     		mov	r5, r0
 3005 0004 0C46     		mov	r4, r1
 611:STM32F10x_StdPeriph_Driver/src/stm32f10x_gpio.c ****   uint32_t tmp = 0x00;
 3006              		.loc 1 611 3 is_stmt 1 view .LVU767
 3007              	.LVL389:
 612:STM32F10x_StdPeriph_Driver/src/stm32f10x_gpio.c ****   /* Check the parameters */
ARM GAS  C:\Users\Anoolv\AppData\Local\Temp\ccdSiwxa.s 			page 69


 613:STM32F10x_StdPeriph_Driver/src/stm32f10x_gpio.c ****   assert_param(IS_GPIO_EXTI_PORT_SOURCE(GPIO_PortSource));
 3008              		.loc 1 613 3 view .LVU768
 3009 0006 0628     		cmp	r0, #6
 3010 0008 8CBF     		ite	hi
 3011 000a 0020     		movhi	r0, #0
 3012              	.LVL390:
 3013              		.loc 1 613 3 is_stmt 0 view .LVU769
 3014 000c 0120     		movls	r0, #1
 3015 000e FFF7FEFF 		bl	assert_param
 3016              	.LVL391:
 614:STM32F10x_StdPeriph_Driver/src/stm32f10x_gpio.c ****   assert_param(IS_GPIO_PIN_SOURCE(GPIO_PinSource));
 3017              		.loc 1 614 3 is_stmt 1 view .LVU770
 3018 0012 0F2C     		cmp	r4, #15
 3019 0014 8CBF     		ite	hi
 3020 0016 0020     		movhi	r0, #0
 3021 0018 0120     		movls	r0, #1
 3022 001a FFF7FEFF 		bl	assert_param
 3023              	.LVL392:
 615:STM32F10x_StdPeriph_Driver/src/stm32f10x_gpio.c ****   
 616:STM32F10x_StdPeriph_Driver/src/stm32f10x_gpio.c ****   tmp = ((uint32_t)0x0F) << (0x04 * (GPIO_PinSource & (uint8_t)0x03));
 3024              		.loc 1 616 3 view .LVU771
 3025              		.loc 1 616 53 is_stmt 0 view .LVU772
 3026 001e 04F00300 		and	r0, r4, #3
 3027              		.loc 1 616 35 view .LVU773
 3028 0022 8000     		lsls	r0, r0, #2
 3029              		.loc 1 616 7 view .LVU774
 3030 0024 0F22     		movs	r2, #15
 3031 0026 02FA00FC 		lsl	ip, r2, r0
 3032              	.LVL393:
 617:STM32F10x_StdPeriph_Driver/src/stm32f10x_gpio.c ****   AFIO->EXTICR[GPIO_PinSource >> 0x02] &= ~tmp;
 3033              		.loc 1 617 3 is_stmt 1 view .LVU775
 3034              		.loc 1 617 40 is_stmt 0 view .LVU776
 3035 002a A108     		lsrs	r1, r4, #2
 3036 002c 074B     		ldr	r3, .L314
 3037 002e 0231     		adds	r1, r1, #2
 3038 0030 53F82120 		ldr	r2, [r3, r1, lsl #2]
 3039 0034 22EA0C02 		bic	r2, r2, ip
 3040 0038 43F82120 		str	r2, [r3, r1, lsl #2]
 618:STM32F10x_StdPeriph_Driver/src/stm32f10x_gpio.c ****   AFIO->EXTICR[GPIO_PinSource >> 0x02] |= (((uint32_t)GPIO_PortSource) << (0x04 * (GPIO_PinSource &
 3041              		.loc 1 618 3 is_stmt 1 view .LVU777
 3042              		.loc 1 618 40 is_stmt 0 view .LVU778
 3043 003c 53F82120 		ldr	r2, [r3, r1, lsl #2]
 3044              		.loc 1 618 72 view .LVU779
 3045 0040 8540     		lsls	r5, r5, r0
 3046              		.loc 1 618 40 view .LVU780
 3047 0042 1543     		orrs	r5, r5, r2
 3048 0044 43F82150 		str	r5, [r3, r1, lsl #2]
 619:STM32F10x_StdPeriph_Driver/src/stm32f10x_gpio.c **** }
 3049              		.loc 1 619 1 view .LVU781
 3050 0048 38BD     		pop	{r3, r4, r5, pc}
 3051              	.L315:
 3052 004a 00BF     		.align	2
 3053              	.L314:
 3054 004c 00000140 		.word	1073807360
 3055              		.cfi_endproc
 3056              	.LFE45:
 3058              		.section	.text.GPIO_ETH_MediaInterfaceConfig,"ax",%progbits
ARM GAS  C:\Users\Anoolv\AppData\Local\Temp\ccdSiwxa.s 			page 70


 3059              		.align	1
 3060              		.global	GPIO_ETH_MediaInterfaceConfig
 3061              		.syntax unified
 3062              		.thumb
 3063              		.thumb_func
 3064              		.fpu softvfp
 3066              	GPIO_ETH_MediaInterfaceConfig:
 3067              	.LVL394:
 3068              	.LFB46:
 620:STM32F10x_StdPeriph_Driver/src/stm32f10x_gpio.c **** 
 621:STM32F10x_StdPeriph_Driver/src/stm32f10x_gpio.c **** /**
 622:STM32F10x_StdPeriph_Driver/src/stm32f10x_gpio.c ****   * @brief  Selects the Ethernet media interface.
 623:STM32F10x_StdPeriph_Driver/src/stm32f10x_gpio.c ****   * @note   This function applies only to STM32 Connectivity line devices.  
 624:STM32F10x_StdPeriph_Driver/src/stm32f10x_gpio.c ****   * @param  GPIO_ETH_MediaInterface: specifies the Media Interface mode.
 625:STM32F10x_StdPeriph_Driver/src/stm32f10x_gpio.c ****   *   This parameter can be one of the following values:
 626:STM32F10x_StdPeriph_Driver/src/stm32f10x_gpio.c ****   *     @arg GPIO_ETH_MediaInterface_MII: MII mode
 627:STM32F10x_StdPeriph_Driver/src/stm32f10x_gpio.c ****   *     @arg GPIO_ETH_MediaInterface_RMII: RMII mode    
 628:STM32F10x_StdPeriph_Driver/src/stm32f10x_gpio.c ****   * @retval None
 629:STM32F10x_StdPeriph_Driver/src/stm32f10x_gpio.c ****   */
 630:STM32F10x_StdPeriph_Driver/src/stm32f10x_gpio.c **** void GPIO_ETH_MediaInterfaceConfig(uint32_t GPIO_ETH_MediaInterface) 
 631:STM32F10x_StdPeriph_Driver/src/stm32f10x_gpio.c **** { 
 3069              		.loc 1 631 1 is_stmt 1 view -0
 3070              		.cfi_startproc
 3071              		@ args = 0, pretend = 0, frame = 0
 3072              		@ frame_needed = 0, uses_anonymous_args = 0
 3073              		.loc 1 631 1 is_stmt 0 view .LVU783
 3074 0000 10B5     		push	{r4, lr}
 3075              	.LCFI16:
 3076              		.cfi_def_cfa_offset 8
 3077              		.cfi_offset 4, -8
 3078              		.cfi_offset 14, -4
 3079 0002 0446     		mov	r4, r0
 632:STM32F10x_StdPeriph_Driver/src/stm32f10x_gpio.c ****   assert_param(IS_GPIO_ETH_MEDIA_INTERFACE(GPIO_ETH_MediaInterface)); 
 3080              		.loc 1 632 3 is_stmt 1 view .LVU784
 3081 0004 0128     		cmp	r0, #1
 3082 0006 8CBF     		ite	hi
 3083 0008 0020     		movhi	r0, #0
 3084              	.LVL395:
 3085              		.loc 1 632 3 is_stmt 0 view .LVU785
 3086 000a 0120     		movls	r0, #1
 3087 000c FFF7FEFF 		bl	assert_param
 3088              	.LVL396:
 633:STM32F10x_StdPeriph_Driver/src/stm32f10x_gpio.c **** 
 634:STM32F10x_StdPeriph_Driver/src/stm32f10x_gpio.c ****   /* Configure MII_RMII selection bit */ 
 635:STM32F10x_StdPeriph_Driver/src/stm32f10x_gpio.c ****   *(__IO uint32_t *) MAPR_MII_RMII_SEL_BB = GPIO_ETH_MediaInterface; 
 3089              		.loc 1 635 3 is_stmt 1 view .LVU786
 3090              		.loc 1 635 43 is_stmt 0 view .LVU787
 3091 0010 014B     		ldr	r3, .L318
 3092 0012 C3F8DC40 		str	r4, [r3, #220]
 636:STM32F10x_StdPeriph_Driver/src/stm32f10x_gpio.c **** }
 3093              		.loc 1 636 1 view .LVU788
 3094 0016 10BD     		pop	{r4, pc}
 3095              	.LVL397:
 3096              	.L319:
 3097              		.loc 1 636 1 view .LVU789
 3098              		.align	2
 3099              	.L318:
ARM GAS  C:\Users\Anoolv\AppData\Local\Temp\ccdSiwxa.s 			page 71


 3100 0018 00002042 		.word	1109393408
 3101              		.cfi_endproc
 3102              	.LFE46:
 3104              		.text
 3105              	.Letext0:
 3106              		.file 2 "c:\\gnu arm embedded toolchain\\10 2020-q4-major\\arm-none-eabi\\include\\machine\\_defau
 3107              		.file 3 "c:\\gnu arm embedded toolchain\\10 2020-q4-major\\arm-none-eabi\\include\\sys\\_stdint.h"
 3108              		.file 4 "CMSIS/DeviceSupport/stm32f10x.h"
 3109              		.file 5 "STM32F10x_StdPeriph_Driver/inc/stm32f10x_gpio.h"
 3110              		.file 6 "STM32F10x_StdPeriph_Driver/inc/stm32f10x_rcc.h"
ARM GAS  C:\Users\Anoolv\AppData\Local\Temp\ccdSiwxa.s 			page 72

